
Allocating common symbols
Common symbol       size              file

USBKeys_SentCLI     0x1               CMakeFiles/kiibohd.elf.dir/Output/pjrcUSB/output_com.c.obj
uart_tx_buf         0x106             CMakeFiles/kiibohd.elf.dir/Scan/UARTConnect/connect_scan.c.obj
Connect_receive_RemoteCapabilityBuffer
                    0x6               CMakeFiles/kiibohd.elf.dir/Scan/UARTConnect/connect_scan.c.obj
CLIHexDebugMode     0x1               CMakeFiles/kiibohd.elf.dir/main.c.obj
CLIHistoryCurrent   0x1               CMakeFiles/kiibohd.elf.dir/main.c.obj
usb_rx_byte_count_data
                    0x14              CMakeFiles/kiibohd.elf.dir/Output/pjrcUSB/arm/usb_dev.c.obj
USBInit_TimeEnd     0x4               CMakeFiles/kiibohd.elf.dir/Output/pjrcUSB/output_com.c.obj
CLILEDState         0x1               CMakeFiles/kiibohd.elf.dir/main.c.obj
CLIDictionariesUsed
                    0x1               CMakeFiles/kiibohd.elf.dir/main.c.obj
Macro_rotationLayer
                    0x2               CMakeFiles/kiibohd.elf.dir/Macro/PartialMap/macro.c.obj
CLIHistoryBuffer    0x3e8             CMakeFiles/kiibohd.elf.dir/main.c.obj
uart_tx_status      0x4               CMakeFiles/kiibohd.elf.dir/Scan/UARTConnect/connect_scan.c.obj
USBKeys_SysCtrl     0x1               CMakeFiles/kiibohd.elf.dir/Output/pjrcUSB/output_com.c.obj
Matrix_scanArray    0x13b             CMakeFiles/kiibohd.elf.dir/Scan/MatrixARM/matrix_scan.c.obj
CLILineBuffer       0x65              CMakeFiles/kiibohd.elf.dir/main.c.obj
I2C_RxBufferPtr     0x12c             CMakeFiles/kiibohd.elf.dir/Scan/ISSILed/led_scan.c.obj
macroTriggerListBuffer
                    0x10b             CMakeFiles/kiibohd.elf.dir/Macro/PartialMap/macro.c.obj
macroResultMacroPendingList
                    0x2ec             CMakeFiles/kiibohd.elf.dir/Macro/PartialMap/result.c.obj
ResultMacroRecordList
                    0x117             CMakeFiles/kiibohd.elf.dir/Macro/PartialMap/macro.c.obj
CLIHistoryHead      0x1               CMakeFiles/kiibohd.elf.dir/main.c.obj
USBInit_Ticks       0x2               CMakeFiles/kiibohd.elf.dir/Output/pjrcUSB/output_com.c.obj
LayerState          0x3               CMakeFiles/kiibohd.elf.dir/Macro/PartialMap/macro.c.obj
Connect_receive_RemoteCapabilityArgs
                    0x19              CMakeFiles/kiibohd.elf.dir/Scan/UARTConnect/connect_scan.c.obj
USBKeys_Keys        0x1b              CMakeFiles/kiibohd.elf.dir/Output/pjrcUSB/output_com.c.obj
Connect_receive_ScanCodeDeviceId
                    0x1               CMakeFiles/kiibohd.elf.dir/Scan/UARTConnect/connect_scan.c.obj
uart_rx_status      0x8               CMakeFiles/kiibohd.elf.dir/Scan/UARTConnect/connect_scan.c.obj
USBKeys_Sent        0x1               CMakeFiles/kiibohd.elf.dir/Output/pjrcUSB/output_com.c.obj
LED_pageBuffer      0x92              CMakeFiles/kiibohd.elf.dir/Scan/ISSILed/led_scan.c.obj
uart_rx_buf         0x104             CMakeFiles/kiibohd.elf.dir/Scan/UARTConnect/connect_scan.c.obj
macroTriggerListLayerCache
                    0x59              CMakeFiles/kiibohd.elf.dir/Macro/PartialMap/macro.c.obj
I2C_TxBufferPtr     0x12c             CMakeFiles/kiibohd.elf.dir/Scan/ISSILed/led_scan.c.obj
Connect_receive_ScanCodeBuffer
                    0x3               CMakeFiles/kiibohd.elf.dir/Scan/UARTConnect/connect_scan.c.obj
CLIDict             0x28              CMakeFiles/kiibohd.elf.dir/main.c.obj
LCD_layerStackExact
                    0x8               CMakeFiles/kiibohd.elf.dir/Scan/STLcd/lcd_scan.c.obj
CLIHistoryTail      0x1               CMakeFiles/kiibohd.elf.dir/main.c.obj
USBKeys_KeysCLI     0x1b              CMakeFiles/kiibohd.elf.dir/Output/pjrcUSB/output_com.c.obj
macroInterconnectCache
                    0x10b             CMakeFiles/kiibohd.elf.dir/Macro/PartialMap/macro.c.obj
CLIDictNames        0x28              CMakeFiles/kiibohd.elf.dir/main.c.obj
Connect_receive_ScanCodeBufferPos
                    0x1               CMakeFiles/kiibohd.elf.dir/Scan/UARTConnect/connect_scan.c.obj
USBInit_TimeStart   0x4               CMakeFiles/kiibohd.elf.dir/Output/pjrcUSB/output_com.c.obj
CLILineBufferCurrent
                    0x1               CMakeFiles/kiibohd.elf.dir/main.c.obj
USBKeys_ConsCtrl    0x2               CMakeFiles/kiibohd.elf.dir/Output/pjrcUSB/output_com.c.obj
TriggerMacroRecordList
                    0xbe              CMakeFiles/kiibohd.elf.dir/Macro/PartialMap/macro.c.obj

Discarded input sections

 .group         0x0000000000000000        0x8 CMakeFiles/kiibohd.elf.dir/main.c.obj
 .group         0x0000000000000000        0x8 CMakeFiles/kiibohd.elf.dir/main.c.obj
 .group         0x0000000000000000        0x8 CMakeFiles/kiibohd.elf.dir/main.c.obj
 .group         0x0000000000000000        0x8 CMakeFiles/kiibohd.elf.dir/main.c.obj
 .group         0x0000000000000000        0x8 CMakeFiles/kiibohd.elf.dir/main.c.obj
 .group         0x0000000000000000        0x8 CMakeFiles/kiibohd.elf.dir/main.c.obj
 .group         0x0000000000000000        0x8 CMakeFiles/kiibohd.elf.dir/main.c.obj
 .group         0x0000000000000000        0x8 CMakeFiles/kiibohd.elf.dir/main.c.obj
 .group         0x0000000000000000        0x8 CMakeFiles/kiibohd.elf.dir/main.c.obj
 .group         0x0000000000000000        0x8 CMakeFiles/kiibohd.elf.dir/main.c.obj
 .group         0x0000000000000000        0x8 CMakeFiles/kiibohd.elf.dir/main.c.obj
 .group         0x0000000000000000        0x8 CMakeFiles/kiibohd.elf.dir/main.c.obj
 .group         0x0000000000000000        0x8 CMakeFiles/kiibohd.elf.dir/main.c.obj
 .group         0x0000000000000000        0x8 CMakeFiles/kiibohd.elf.dir/main.c.obj
 .text          0x0000000000000000        0x0 CMakeFiles/kiibohd.elf.dir/main.c.obj
 .data          0x0000000000000000        0x0 CMakeFiles/kiibohd.elf.dir/main.c.obj
 .bss           0x0000000000000000        0x0 CMakeFiles/kiibohd.elf.dir/main.c.obj
 .group         0x0000000000000000        0x8 CMakeFiles/kiibohd.elf.dir/Lib/mk20dx.c.obj
 .group         0x0000000000000000        0x8 CMakeFiles/kiibohd.elf.dir/Lib/mk20dx.c.obj
 .group         0x0000000000000000        0x8 CMakeFiles/kiibohd.elf.dir/Lib/mk20dx.c.obj
 .group         0x0000000000000000        0x8 CMakeFiles/kiibohd.elf.dir/Lib/mk20dx.c.obj
 .group         0x0000000000000000        0x8 CMakeFiles/kiibohd.elf.dir/Lib/mk20dx.c.obj
 .group         0x0000000000000000        0x8 CMakeFiles/kiibohd.elf.dir/Lib/mk20dx.c.obj
 .group         0x0000000000000000        0x8 CMakeFiles/kiibohd.elf.dir/Lib/mk20dx.c.obj
 .group         0x0000000000000000        0x8 CMakeFiles/kiibohd.elf.dir/Lib/mk20dx.c.obj
 .group         0x0000000000000000        0x8 CMakeFiles/kiibohd.elf.dir/Lib/mk20dx.c.obj
 .group         0x0000000000000000        0x8 CMakeFiles/kiibohd.elf.dir/Lib/mk20dx.c.obj
 .group         0x0000000000000000        0x8 CMakeFiles/kiibohd.elf.dir/Lib/mk20dx.c.obj
 .text          0x0000000000000000        0x0 CMakeFiles/kiibohd.elf.dir/Lib/mk20dx.c.obj
 .data          0x0000000000000000        0x0 CMakeFiles/kiibohd.elf.dir/Lib/mk20dx.c.obj
 .bss           0x0000000000000000        0x0 CMakeFiles/kiibohd.elf.dir/Lib/mk20dx.c.obj
 .text.memcmp   0x0000000000000000       0x1e CMakeFiles/kiibohd.elf.dir/Lib/mk20dx.c.obj
 .text._sbrk    0x0000000000000000       0x10 CMakeFiles/kiibohd.elf.dir/Lib/mk20dx.c.obj
 .text.nvic_execution_priority
                0x0000000000000000       0x3c CMakeFiles/kiibohd.elf.dir/Lib/mk20dx.c.obj
 .data.__brkval
                0x0000000000000000        0x4 CMakeFiles/kiibohd.elf.dir/Lib/mk20dx.c.obj
 .debug_macro   0x0000000000000000      0x886 CMakeFiles/kiibohd.elf.dir/Lib/mk20dx.c.obj
 .debug_macro   0x0000000000000000       0x22 CMakeFiles/kiibohd.elf.dir/Lib/mk20dx.c.obj
 .debug_macro   0x0000000000000000       0x87 CMakeFiles/kiibohd.elf.dir/Lib/mk20dx.c.obj
 .debug_macro   0x0000000000000000       0x44 CMakeFiles/kiibohd.elf.dir/Lib/mk20dx.c.obj
 .debug_macro   0x0000000000000000       0xfd CMakeFiles/kiibohd.elf.dir/Lib/mk20dx.c.obj
 .debug_macro   0x0000000000000000       0x5e CMakeFiles/kiibohd.elf.dir/Lib/mk20dx.c.obj
 .debug_macro   0x0000000000000000      0x1df CMakeFiles/kiibohd.elf.dir/Lib/mk20dx.c.obj
 .debug_macro   0x0000000000000000       0x7c CMakeFiles/kiibohd.elf.dir/Lib/mk20dx.c.obj
 .debug_macro   0x0000000000000000       0x10 CMakeFiles/kiibohd.elf.dir/Lib/mk20dx.c.obj
 .debug_macro   0x0000000000000000       0x9a CMakeFiles/kiibohd.elf.dir/Lib/mk20dx.c.obj
 .group         0x0000000000000000        0x8 CMakeFiles/kiibohd.elf.dir/Lib/delay.c.obj
 .group         0x0000000000000000        0x8 CMakeFiles/kiibohd.elf.dir/Lib/delay.c.obj
 .group         0x0000000000000000        0x8 CMakeFiles/kiibohd.elf.dir/Lib/delay.c.obj
 .group         0x0000000000000000        0x8 CMakeFiles/kiibohd.elf.dir/Lib/delay.c.obj
 .group         0x0000000000000000        0x8 CMakeFiles/kiibohd.elf.dir/Lib/delay.c.obj
 .group         0x0000000000000000        0x8 CMakeFiles/kiibohd.elf.dir/Lib/delay.c.obj
 .group         0x0000000000000000        0x8 CMakeFiles/kiibohd.elf.dir/Lib/delay.c.obj
 .group         0x0000000000000000        0x8 CMakeFiles/kiibohd.elf.dir/Lib/delay.c.obj
 .group         0x0000000000000000        0x8 CMakeFiles/kiibohd.elf.dir/Lib/delay.c.obj
 .text          0x0000000000000000        0x0 CMakeFiles/kiibohd.elf.dir/Lib/delay.c.obj
 .data          0x0000000000000000        0x0 CMakeFiles/kiibohd.elf.dir/Lib/delay.c.obj
 .bss           0x0000000000000000        0x0 CMakeFiles/kiibohd.elf.dir/Lib/delay.c.obj
 .debug_macro   0x0000000000000000      0x886 CMakeFiles/kiibohd.elf.dir/Lib/delay.c.obj
 .debug_macro   0x0000000000000000       0x22 CMakeFiles/kiibohd.elf.dir/Lib/delay.c.obj
 .debug_macro   0x0000000000000000       0x87 CMakeFiles/kiibohd.elf.dir/Lib/delay.c.obj
 .debug_macro   0x0000000000000000       0x44 CMakeFiles/kiibohd.elf.dir/Lib/delay.c.obj
 .debug_macro   0x0000000000000000       0xfd CMakeFiles/kiibohd.elf.dir/Lib/delay.c.obj
 .debug_macro   0x0000000000000000       0x5e CMakeFiles/kiibohd.elf.dir/Lib/delay.c.obj
 .debug_macro   0x0000000000000000      0x1df CMakeFiles/kiibohd.elf.dir/Lib/delay.c.obj
 .debug_macro   0x0000000000000000     0x3030 CMakeFiles/kiibohd.elf.dir/Lib/delay.c.obj
 .group         0x0000000000000000        0x8 CMakeFiles/kiibohd.elf.dir/Scan/ISSILed/led_scan.c.obj
 .group         0x0000000000000000        0x8 CMakeFiles/kiibohd.elf.dir/Scan/ISSILed/led_scan.c.obj
 .group         0x0000000000000000        0x8 CMakeFiles/kiibohd.elf.dir/Scan/ISSILed/led_scan.c.obj
 .group         0x0000000000000000        0x8 CMakeFiles/kiibohd.elf.dir/Scan/ISSILed/led_scan.c.obj
 .group         0x0000000000000000        0x8 CMakeFiles/kiibohd.elf.dir/Scan/ISSILed/led_scan.c.obj
 .group         0x0000000000000000        0x8 CMakeFiles/kiibohd.elf.dir/Scan/ISSILed/led_scan.c.obj
 .group         0x0000000000000000        0x8 CMakeFiles/kiibohd.elf.dir/Scan/ISSILed/led_scan.c.obj
 .group         0x0000000000000000        0x8 CMakeFiles/kiibohd.elf.dir/Scan/ISSILed/led_scan.c.obj
 .group         0x0000000000000000        0x8 CMakeFiles/kiibohd.elf.dir/Scan/ISSILed/led_scan.c.obj
 .group         0x0000000000000000        0x8 CMakeFiles/kiibohd.elf.dir/Scan/ISSILed/led_scan.c.obj
 .group         0x0000000000000000        0x8 CMakeFiles/kiibohd.elf.dir/Scan/ISSILed/led_scan.c.obj
 .group         0x0000000000000000        0x8 CMakeFiles/kiibohd.elf.dir/Scan/ISSILed/led_scan.c.obj
 .group         0x0000000000000000        0x8 CMakeFiles/kiibohd.elf.dir/Scan/ISSILed/led_scan.c.obj
 .group         0x0000000000000000        0x8 CMakeFiles/kiibohd.elf.dir/Scan/ISSILed/led_scan.c.obj
 .group         0x0000000000000000        0x8 CMakeFiles/kiibohd.elf.dir/Scan/ISSILed/led_scan.c.obj
 .group         0x0000000000000000        0x8 CMakeFiles/kiibohd.elf.dir/Scan/ISSILed/led_scan.c.obj
 .group         0x0000000000000000        0x8 CMakeFiles/kiibohd.elf.dir/Scan/ISSILed/led_scan.c.obj
 .group         0x0000000000000000        0x8 CMakeFiles/kiibohd.elf.dir/Scan/ISSILed/led_scan.c.obj
 .text          0x0000000000000000        0x0 CMakeFiles/kiibohd.elf.dir/Scan/ISSILed/led_scan.c.obj
 .data          0x0000000000000000        0x0 CMakeFiles/kiibohd.elf.dir/Scan/ISSILed/led_scan.c.obj
 .bss           0x0000000000000000        0x0 CMakeFiles/kiibohd.elf.dir/Scan/ISSILed/led_scan.c.obj
 .debug_macro   0x0000000000000000      0x886 CMakeFiles/kiibohd.elf.dir/Scan/ISSILed/led_scan.c.obj
 .debug_macro   0x0000000000000000       0x16 CMakeFiles/kiibohd.elf.dir/Scan/ISSILed/led_scan.c.obj
 .debug_macro   0x0000000000000000       0x22 CMakeFiles/kiibohd.elf.dir/Scan/ISSILed/led_scan.c.obj
 .debug_macro   0x0000000000000000       0x87 CMakeFiles/kiibohd.elf.dir/Scan/ISSILed/led_scan.c.obj
 .debug_macro   0x0000000000000000       0x44 CMakeFiles/kiibohd.elf.dir/Scan/ISSILed/led_scan.c.obj
 .debug_macro   0x0000000000000000       0xfd CMakeFiles/kiibohd.elf.dir/Scan/ISSILed/led_scan.c.obj
 .debug_macro   0x0000000000000000       0x5e CMakeFiles/kiibohd.elf.dir/Scan/ISSILed/led_scan.c.obj
 .debug_macro   0x0000000000000000      0x1df CMakeFiles/kiibohd.elf.dir/Scan/ISSILed/led_scan.c.obj
 .debug_macro   0x0000000000000000     0x301e CMakeFiles/kiibohd.elf.dir/Scan/ISSILed/led_scan.c.obj
 .debug_macro   0x0000000000000000       0x10 CMakeFiles/kiibohd.elf.dir/Scan/ISSILed/led_scan.c.obj
 .debug_macro   0x0000000000000000       0x10 CMakeFiles/kiibohd.elf.dir/Scan/ISSILed/led_scan.c.obj
 .debug_macro   0x0000000000000000       0x10 CMakeFiles/kiibohd.elf.dir/Scan/ISSILed/led_scan.c.obj
 .debug_macro   0x0000000000000000       0x3a CMakeFiles/kiibohd.elf.dir/Scan/ISSILed/led_scan.c.obj
 .debug_macro   0x0000000000000000       0x9a CMakeFiles/kiibohd.elf.dir/Scan/ISSILed/led_scan.c.obj
 .group         0x0000000000000000        0x8 CMakeFiles/kiibohd.elf.dir/Scan/MatrixARM/matrix_scan.c.obj
 .group         0x0000000000000000        0x8 CMakeFiles/kiibohd.elf.dir/Scan/MatrixARM/matrix_scan.c.obj
 .group         0x0000000000000000        0x8 CMakeFiles/kiibohd.elf.dir/Scan/MatrixARM/matrix_scan.c.obj
 .group         0x0000000000000000        0x8 CMakeFiles/kiibohd.elf.dir/Scan/MatrixARM/matrix_scan.c.obj
 .group         0x0000000000000000        0x8 CMakeFiles/kiibohd.elf.dir/Scan/MatrixARM/matrix_scan.c.obj
 .group         0x0000000000000000        0x8 CMakeFiles/kiibohd.elf.dir/Scan/MatrixARM/matrix_scan.c.obj
 .group         0x0000000000000000        0x8 CMakeFiles/kiibohd.elf.dir/Scan/MatrixARM/matrix_scan.c.obj
 .group         0x0000000000000000        0x8 CMakeFiles/kiibohd.elf.dir/Scan/MatrixARM/matrix_scan.c.obj
 .group         0x0000000000000000        0x8 CMakeFiles/kiibohd.elf.dir/Scan/MatrixARM/matrix_scan.c.obj
 .group         0x0000000000000000        0x8 CMakeFiles/kiibohd.elf.dir/Scan/MatrixARM/matrix_scan.c.obj
 .group         0x0000000000000000        0x8 CMakeFiles/kiibohd.elf.dir/Scan/MatrixARM/matrix_scan.c.obj
 .group         0x0000000000000000        0x8 CMakeFiles/kiibohd.elf.dir/Scan/MatrixARM/matrix_scan.c.obj
 .group         0x0000000000000000        0x8 CMakeFiles/kiibohd.elf.dir/Scan/MatrixARM/matrix_scan.c.obj
 .group         0x0000000000000000        0x8 CMakeFiles/kiibohd.elf.dir/Scan/MatrixARM/matrix_scan.c.obj
 .group         0x0000000000000000        0x8 CMakeFiles/kiibohd.elf.dir/Scan/MatrixARM/matrix_scan.c.obj
 .group         0x0000000000000000        0x8 CMakeFiles/kiibohd.elf.dir/Scan/MatrixARM/matrix_scan.c.obj
 .group         0x0000000000000000        0x8 CMakeFiles/kiibohd.elf.dir/Scan/MatrixARM/matrix_scan.c.obj
 .text          0x0000000000000000        0x0 CMakeFiles/kiibohd.elf.dir/Scan/MatrixARM/matrix_scan.c.obj
 .data          0x0000000000000000        0x0 CMakeFiles/kiibohd.elf.dir/Scan/MatrixARM/matrix_scan.c.obj
 .bss           0x0000000000000000        0x0 CMakeFiles/kiibohd.elf.dir/Scan/MatrixARM/matrix_scan.c.obj
 .debug_macro   0x0000000000000000      0x886 CMakeFiles/kiibohd.elf.dir/Scan/MatrixARM/matrix_scan.c.obj
 .debug_macro   0x0000000000000000       0x16 CMakeFiles/kiibohd.elf.dir/Scan/MatrixARM/matrix_scan.c.obj
 .debug_macro   0x0000000000000000       0x22 CMakeFiles/kiibohd.elf.dir/Scan/MatrixARM/matrix_scan.c.obj
 .debug_macro   0x0000000000000000       0x87 CMakeFiles/kiibohd.elf.dir/Scan/MatrixARM/matrix_scan.c.obj
 .debug_macro   0x0000000000000000       0x44 CMakeFiles/kiibohd.elf.dir/Scan/MatrixARM/matrix_scan.c.obj
 .debug_macro   0x0000000000000000       0xfd CMakeFiles/kiibohd.elf.dir/Scan/MatrixARM/matrix_scan.c.obj
 .debug_macro   0x0000000000000000       0x5e CMakeFiles/kiibohd.elf.dir/Scan/MatrixARM/matrix_scan.c.obj
 .debug_macro   0x0000000000000000      0x1df CMakeFiles/kiibohd.elf.dir/Scan/MatrixARM/matrix_scan.c.obj
 .debug_macro   0x0000000000000000     0x301e CMakeFiles/kiibohd.elf.dir/Scan/MatrixARM/matrix_scan.c.obj
 .debug_macro   0x0000000000000000       0x10 CMakeFiles/kiibohd.elf.dir/Scan/MatrixARM/matrix_scan.c.obj
 .debug_macro   0x0000000000000000       0x10 CMakeFiles/kiibohd.elf.dir/Scan/MatrixARM/matrix_scan.c.obj
 .debug_macro   0x0000000000000000       0x7c CMakeFiles/kiibohd.elf.dir/Scan/MatrixARM/matrix_scan.c.obj
 .debug_macro   0x0000000000000000       0x10 CMakeFiles/kiibohd.elf.dir/Scan/MatrixARM/matrix_scan.c.obj
 .debug_macro   0x0000000000000000       0x3a CMakeFiles/kiibohd.elf.dir/Scan/MatrixARM/matrix_scan.c.obj
 .debug_macro   0x0000000000000000      0x18a CMakeFiles/kiibohd.elf.dir/Scan/MatrixARM/matrix_scan.c.obj
 .debug_macro   0x0000000000000000       0x9a CMakeFiles/kiibohd.elf.dir/Scan/MatrixARM/matrix_scan.c.obj
 .group         0x0000000000000000        0x8 CMakeFiles/kiibohd.elf.dir/Scan/STLcd/lcd_scan.c.obj
 .group         0x0000000000000000        0x8 CMakeFiles/kiibohd.elf.dir/Scan/STLcd/lcd_scan.c.obj
 .group         0x0000000000000000        0x8 CMakeFiles/kiibohd.elf.dir/Scan/STLcd/lcd_scan.c.obj
 .group         0x0000000000000000        0x8 CMakeFiles/kiibohd.elf.dir/Scan/STLcd/lcd_scan.c.obj
 .group         0x0000000000000000        0x8 CMakeFiles/kiibohd.elf.dir/Scan/STLcd/lcd_scan.c.obj
 .group         0x0000000000000000        0x8 CMakeFiles/kiibohd.elf.dir/Scan/STLcd/lcd_scan.c.obj
 .group         0x0000000000000000        0x8 CMakeFiles/kiibohd.elf.dir/Scan/STLcd/lcd_scan.c.obj
 .group         0x0000000000000000        0x8 CMakeFiles/kiibohd.elf.dir/Scan/STLcd/lcd_scan.c.obj
 .group         0x0000000000000000        0x8 CMakeFiles/kiibohd.elf.dir/Scan/STLcd/lcd_scan.c.obj
 .group         0x0000000000000000        0x8 CMakeFiles/kiibohd.elf.dir/Scan/STLcd/lcd_scan.c.obj
 .group         0x0000000000000000        0x8 CMakeFiles/kiibohd.elf.dir/Scan/STLcd/lcd_scan.c.obj
 .group         0x0000000000000000        0x8 CMakeFiles/kiibohd.elf.dir/Scan/STLcd/lcd_scan.c.obj
 .group         0x0000000000000000        0x8 CMakeFiles/kiibohd.elf.dir/Scan/STLcd/lcd_scan.c.obj
 .group         0x0000000000000000        0x8 CMakeFiles/kiibohd.elf.dir/Scan/STLcd/lcd_scan.c.obj
 .group         0x0000000000000000        0x8 CMakeFiles/kiibohd.elf.dir/Scan/STLcd/lcd_scan.c.obj
 .group         0x0000000000000000        0x8 CMakeFiles/kiibohd.elf.dir/Scan/STLcd/lcd_scan.c.obj
 .group         0x0000000000000000        0x8 CMakeFiles/kiibohd.elf.dir/Scan/STLcd/lcd_scan.c.obj
 .group         0x0000000000000000        0x8 CMakeFiles/kiibohd.elf.dir/Scan/STLcd/lcd_scan.c.obj
 .text          0x0000000000000000        0x0 CMakeFiles/kiibohd.elf.dir/Scan/STLcd/lcd_scan.c.obj
 .data          0x0000000000000000        0x0 CMakeFiles/kiibohd.elf.dir/Scan/STLcd/lcd_scan.c.obj
 .bss           0x0000000000000000        0x0 CMakeFiles/kiibohd.elf.dir/Scan/STLcd/lcd_scan.c.obj
 .bss.LCD_layerStackExact_size
                0x0000000000000000        0x1 CMakeFiles/kiibohd.elf.dir/Scan/STLcd/lcd_scan.c.obj
 .bss.cliNormalReverseToggleState
                0x0000000000000000        0x1 CMakeFiles/kiibohd.elf.dir/Scan/STLcd/lcd_scan.c.obj
 .bss.cliFullToggleState
                0x0000000000000000        0x1 CMakeFiles/kiibohd.elf.dir/Scan/STLcd/lcd_scan.c.obj
 .debug_macro   0x0000000000000000      0x886 CMakeFiles/kiibohd.elf.dir/Scan/STLcd/lcd_scan.c.obj
 .debug_macro   0x0000000000000000       0x16 CMakeFiles/kiibohd.elf.dir/Scan/STLcd/lcd_scan.c.obj
 .debug_macro   0x0000000000000000       0x22 CMakeFiles/kiibohd.elf.dir/Scan/STLcd/lcd_scan.c.obj
 .debug_macro   0x0000000000000000       0x87 CMakeFiles/kiibohd.elf.dir/Scan/STLcd/lcd_scan.c.obj
 .debug_macro   0x0000000000000000       0x44 CMakeFiles/kiibohd.elf.dir/Scan/STLcd/lcd_scan.c.obj
 .debug_macro   0x0000000000000000       0xfd CMakeFiles/kiibohd.elf.dir/Scan/STLcd/lcd_scan.c.obj
 .debug_macro   0x0000000000000000       0x5e CMakeFiles/kiibohd.elf.dir/Scan/STLcd/lcd_scan.c.obj
 .debug_macro   0x0000000000000000      0x1df CMakeFiles/kiibohd.elf.dir/Scan/STLcd/lcd_scan.c.obj
 .debug_macro   0x0000000000000000     0x301e CMakeFiles/kiibohd.elf.dir/Scan/STLcd/lcd_scan.c.obj
 .debug_macro   0x0000000000000000       0x10 CMakeFiles/kiibohd.elf.dir/Scan/STLcd/lcd_scan.c.obj
 .debug_macro   0x0000000000000000       0x10 CMakeFiles/kiibohd.elf.dir/Scan/STLcd/lcd_scan.c.obj
 .debug_macro   0x0000000000000000       0x7c CMakeFiles/kiibohd.elf.dir/Scan/STLcd/lcd_scan.c.obj
 .debug_macro   0x0000000000000000       0x10 CMakeFiles/kiibohd.elf.dir/Scan/STLcd/lcd_scan.c.obj
 .debug_macro   0x0000000000000000       0x3a CMakeFiles/kiibohd.elf.dir/Scan/STLcd/lcd_scan.c.obj
 .debug_macro   0x0000000000000000      0x18a CMakeFiles/kiibohd.elf.dir/Scan/STLcd/lcd_scan.c.obj
 .debug_macro   0x0000000000000000       0x9a CMakeFiles/kiibohd.elf.dir/Scan/STLcd/lcd_scan.c.obj
 .debug_macro   0x0000000000000000     0x1217 CMakeFiles/kiibohd.elf.dir/Scan/STLcd/lcd_scan.c.obj
 .debug_macro   0x0000000000000000       0x57 CMakeFiles/kiibohd.elf.dir/Scan/STLcd/lcd_scan.c.obj
 COMMON         0x0000000000000000        0x8 CMakeFiles/kiibohd.elf.dir/Scan/STLcd/lcd_scan.c.obj
 .group         0x0000000000000000        0x8 CMakeFiles/kiibohd.elf.dir/Scan/UARTConnect/connect_scan.c.obj
 .group         0x0000000000000000        0x8 CMakeFiles/kiibohd.elf.dir/Scan/UARTConnect/connect_scan.c.obj
 .group         0x0000000000000000        0x8 CMakeFiles/kiibohd.elf.dir/Scan/UARTConnect/connect_scan.c.obj
 .group         0x0000000000000000        0x8 CMakeFiles/kiibohd.elf.dir/Scan/UARTConnect/connect_scan.c.obj
 .group         0x0000000000000000        0x8 CMakeFiles/kiibohd.elf.dir/Scan/UARTConnect/connect_scan.c.obj
 .group         0x0000000000000000        0x8 CMakeFiles/kiibohd.elf.dir/Scan/UARTConnect/connect_scan.c.obj
 .group         0x0000000000000000        0x8 CMakeFiles/kiibohd.elf.dir/Scan/UARTConnect/connect_scan.c.obj
 .group         0x0000000000000000        0x8 CMakeFiles/kiibohd.elf.dir/Scan/UARTConnect/connect_scan.c.obj
 .group         0x0000000000000000        0x8 CMakeFiles/kiibohd.elf.dir/Scan/UARTConnect/connect_scan.c.obj
 .group         0x0000000000000000        0x8 CMakeFiles/kiibohd.elf.dir/Scan/UARTConnect/connect_scan.c.obj
 .group         0x0000000000000000        0x8 CMakeFiles/kiibohd.elf.dir/Scan/UARTConnect/connect_scan.c.obj
 .group         0x0000000000000000        0x8 CMakeFiles/kiibohd.elf.dir/Scan/UARTConnect/connect_scan.c.obj
 .group         0x0000000000000000        0x8 CMakeFiles/kiibohd.elf.dir/Scan/UARTConnect/connect_scan.c.obj
 .group         0x0000000000000000        0x8 CMakeFiles/kiibohd.elf.dir/Scan/UARTConnect/connect_scan.c.obj
 .group         0x0000000000000000        0x8 CMakeFiles/kiibohd.elf.dir/Scan/UARTConnect/connect_scan.c.obj
 .group         0x0000000000000000        0x8 CMakeFiles/kiibohd.elf.dir/Scan/UARTConnect/connect_scan.c.obj
 .group         0x0000000000000000        0x8 CMakeFiles/kiibohd.elf.dir/Scan/UARTConnect/connect_scan.c.obj
 .group         0x0000000000000000        0x8 CMakeFiles/kiibohd.elf.dir/Scan/UARTConnect/connect_scan.c.obj
 .text          0x0000000000000000        0x0 CMakeFiles/kiibohd.elf.dir/Scan/UARTConnect/connect_scan.c.obj
 .data          0x0000000000000000        0x0 CMakeFiles/kiibohd.elf.dir/Scan/UARTConnect/connect_scan.c.obj
 .bss           0x0000000000000000        0x0 CMakeFiles/kiibohd.elf.dir/Scan/UARTConnect/connect_scan.c.obj
 .text.Connect_send_Animation
                0x0000000000000000       0x58 CMakeFiles/kiibohd.elf.dir/Scan/UARTConnect/connect_scan.c.obj
 .debug_macro   0x0000000000000000      0x886 CMakeFiles/kiibohd.elf.dir/Scan/UARTConnect/connect_scan.c.obj
 .debug_macro   0x0000000000000000       0x16 CMakeFiles/kiibohd.elf.dir/Scan/UARTConnect/connect_scan.c.obj
 .debug_macro   0x0000000000000000       0x22 CMakeFiles/kiibohd.elf.dir/Scan/UARTConnect/connect_scan.c.obj
 .debug_macro   0x0000000000000000       0x87 CMakeFiles/kiibohd.elf.dir/Scan/UARTConnect/connect_scan.c.obj
 .debug_macro   0x0000000000000000       0x44 CMakeFiles/kiibohd.elf.dir/Scan/UARTConnect/connect_scan.c.obj
 .debug_macro   0x0000000000000000       0xfd CMakeFiles/kiibohd.elf.dir/Scan/UARTConnect/connect_scan.c.obj
 .debug_macro   0x0000000000000000       0x5e CMakeFiles/kiibohd.elf.dir/Scan/UARTConnect/connect_scan.c.obj
 .debug_macro   0x0000000000000000      0x1df CMakeFiles/kiibohd.elf.dir/Scan/UARTConnect/connect_scan.c.obj
 .debug_macro   0x0000000000000000     0x301e CMakeFiles/kiibohd.elf.dir/Scan/UARTConnect/connect_scan.c.obj
 .debug_macro   0x0000000000000000       0x10 CMakeFiles/kiibohd.elf.dir/Scan/UARTConnect/connect_scan.c.obj
 .debug_macro   0x0000000000000000       0x10 CMakeFiles/kiibohd.elf.dir/Scan/UARTConnect/connect_scan.c.obj
 .debug_macro   0x0000000000000000       0x7c CMakeFiles/kiibohd.elf.dir/Scan/UARTConnect/connect_scan.c.obj
 .debug_macro   0x0000000000000000       0x10 CMakeFiles/kiibohd.elf.dir/Scan/UARTConnect/connect_scan.c.obj
 .debug_macro   0x0000000000000000       0x3a CMakeFiles/kiibohd.elf.dir/Scan/UARTConnect/connect_scan.c.obj
 .debug_macro   0x0000000000000000      0x18a CMakeFiles/kiibohd.elf.dir/Scan/UARTConnect/connect_scan.c.obj
 .debug_macro   0x0000000000000000       0x9a CMakeFiles/kiibohd.elf.dir/Scan/UARTConnect/connect_scan.c.obj
 .debug_macro   0x0000000000000000     0x1217 CMakeFiles/kiibohd.elf.dir/Scan/UARTConnect/connect_scan.c.obj
 .debug_macro   0x0000000000000000       0x57 CMakeFiles/kiibohd.elf.dir/Scan/UARTConnect/connect_scan.c.obj
 .group         0x0000000000000000        0x8 CMakeFiles/kiibohd.elf.dir/Scan/Infinity_Ergodox/scan_loop.c.obj
 .group         0x0000000000000000        0x8 CMakeFiles/kiibohd.elf.dir/Scan/Infinity_Ergodox/scan_loop.c.obj
 .group         0x0000000000000000        0x8 CMakeFiles/kiibohd.elf.dir/Scan/Infinity_Ergodox/scan_loop.c.obj
 .group         0x0000000000000000        0x8 CMakeFiles/kiibohd.elf.dir/Scan/Infinity_Ergodox/scan_loop.c.obj
 .group         0x0000000000000000        0x8 CMakeFiles/kiibohd.elf.dir/Scan/Infinity_Ergodox/scan_loop.c.obj
 .group         0x0000000000000000        0x8 CMakeFiles/kiibohd.elf.dir/Scan/Infinity_Ergodox/scan_loop.c.obj
 .group         0x0000000000000000        0x8 CMakeFiles/kiibohd.elf.dir/Scan/Infinity_Ergodox/scan_loop.c.obj
 .group         0x0000000000000000        0x8 CMakeFiles/kiibohd.elf.dir/Scan/Infinity_Ergodox/scan_loop.c.obj
 .group         0x0000000000000000        0x8 CMakeFiles/kiibohd.elf.dir/Scan/Infinity_Ergodox/scan_loop.c.obj
 .group         0x0000000000000000        0x8 CMakeFiles/kiibohd.elf.dir/Scan/Infinity_Ergodox/scan_loop.c.obj
 .group         0x0000000000000000        0x8 CMakeFiles/kiibohd.elf.dir/Scan/Infinity_Ergodox/scan_loop.c.obj
 .group         0x0000000000000000        0x8 CMakeFiles/kiibohd.elf.dir/Scan/Infinity_Ergodox/scan_loop.c.obj
 .group         0x0000000000000000        0x8 CMakeFiles/kiibohd.elf.dir/Scan/Infinity_Ergodox/scan_loop.c.obj
 .group         0x0000000000000000        0x8 CMakeFiles/kiibohd.elf.dir/Scan/Infinity_Ergodox/scan_loop.c.obj
 .group         0x0000000000000000        0x8 CMakeFiles/kiibohd.elf.dir/Scan/Infinity_Ergodox/scan_loop.c.obj
 .group         0x0000000000000000        0x8 CMakeFiles/kiibohd.elf.dir/Scan/Infinity_Ergodox/scan_loop.c.obj
 .group         0x0000000000000000        0x8 CMakeFiles/kiibohd.elf.dir/Scan/Infinity_Ergodox/scan_loop.c.obj
 .group         0x0000000000000000        0x8 CMakeFiles/kiibohd.elf.dir/Scan/Infinity_Ergodox/scan_loop.c.obj
 .text          0x0000000000000000        0x0 CMakeFiles/kiibohd.elf.dir/Scan/Infinity_Ergodox/scan_loop.c.obj
 .data          0x0000000000000000        0x0 CMakeFiles/kiibohd.elf.dir/Scan/Infinity_Ergodox/scan_loop.c.obj
 .bss           0x0000000000000000        0x0 CMakeFiles/kiibohd.elf.dir/Scan/Infinity_Ergodox/scan_loop.c.obj
 .debug_macro   0x0000000000000000      0x886 CMakeFiles/kiibohd.elf.dir/Scan/Infinity_Ergodox/scan_loop.c.obj
 .debug_macro   0x0000000000000000       0x16 CMakeFiles/kiibohd.elf.dir/Scan/Infinity_Ergodox/scan_loop.c.obj
 .debug_macro   0x0000000000000000       0x22 CMakeFiles/kiibohd.elf.dir/Scan/Infinity_Ergodox/scan_loop.c.obj
 .debug_macro   0x0000000000000000       0x87 CMakeFiles/kiibohd.elf.dir/Scan/Infinity_Ergodox/scan_loop.c.obj
 .debug_macro   0x0000000000000000       0x44 CMakeFiles/kiibohd.elf.dir/Scan/Infinity_Ergodox/scan_loop.c.obj
 .debug_macro   0x0000000000000000       0xfd CMakeFiles/kiibohd.elf.dir/Scan/Infinity_Ergodox/scan_loop.c.obj
 .debug_macro   0x0000000000000000       0x5e CMakeFiles/kiibohd.elf.dir/Scan/Infinity_Ergodox/scan_loop.c.obj
 .debug_macro   0x0000000000000000      0x1df CMakeFiles/kiibohd.elf.dir/Scan/Infinity_Ergodox/scan_loop.c.obj
 .debug_macro   0x0000000000000000     0x301e CMakeFiles/kiibohd.elf.dir/Scan/Infinity_Ergodox/scan_loop.c.obj
 .debug_macro   0x0000000000000000       0x10 CMakeFiles/kiibohd.elf.dir/Scan/Infinity_Ergodox/scan_loop.c.obj
 .debug_macro   0x0000000000000000       0x10 CMakeFiles/kiibohd.elf.dir/Scan/Infinity_Ergodox/scan_loop.c.obj
 .debug_macro   0x0000000000000000       0x7c CMakeFiles/kiibohd.elf.dir/Scan/Infinity_Ergodox/scan_loop.c.obj
 .debug_macro   0x0000000000000000       0x10 CMakeFiles/kiibohd.elf.dir/Scan/Infinity_Ergodox/scan_loop.c.obj
 .debug_macro   0x0000000000000000       0x3a CMakeFiles/kiibohd.elf.dir/Scan/Infinity_Ergodox/scan_loop.c.obj
 .debug_macro   0x0000000000000000      0x18a CMakeFiles/kiibohd.elf.dir/Scan/Infinity_Ergodox/scan_loop.c.obj
 .debug_macro   0x0000000000000000       0x9a CMakeFiles/kiibohd.elf.dir/Scan/Infinity_Ergodox/scan_loop.c.obj
 .debug_macro   0x0000000000000000     0x1217 CMakeFiles/kiibohd.elf.dir/Scan/Infinity_Ergodox/scan_loop.c.obj
 .debug_macro   0x0000000000000000       0x57 CMakeFiles/kiibohd.elf.dir/Scan/Infinity_Ergodox/scan_loop.c.obj
 .group         0x0000000000000000        0x8 CMakeFiles/kiibohd.elf.dir/Macro/PartialMap/macro.c.obj
 .group         0x0000000000000000        0x8 CMakeFiles/kiibohd.elf.dir/Macro/PartialMap/macro.c.obj
 .group         0x0000000000000000        0x8 CMakeFiles/kiibohd.elf.dir/Macro/PartialMap/macro.c.obj
 .group         0x0000000000000000        0x8 CMakeFiles/kiibohd.elf.dir/Macro/PartialMap/macro.c.obj
 .group         0x0000000000000000        0x8 CMakeFiles/kiibohd.elf.dir/Macro/PartialMap/macro.c.obj
 .group         0x0000000000000000        0x8 CMakeFiles/kiibohd.elf.dir/Macro/PartialMap/macro.c.obj
 .group         0x0000000000000000        0x8 CMakeFiles/kiibohd.elf.dir/Macro/PartialMap/macro.c.obj
 .group         0x0000000000000000        0x8 CMakeFiles/kiibohd.elf.dir/Macro/PartialMap/macro.c.obj
 .group         0x0000000000000000        0x8 CMakeFiles/kiibohd.elf.dir/Macro/PartialMap/macro.c.obj
 .group         0x0000000000000000        0x8 CMakeFiles/kiibohd.elf.dir/Macro/PartialMap/macro.c.obj
 .group         0x0000000000000000        0x8 CMakeFiles/kiibohd.elf.dir/Macro/PartialMap/macro.c.obj
 .group         0x0000000000000000        0x8 CMakeFiles/kiibohd.elf.dir/Macro/PartialMap/macro.c.obj
 .group         0x0000000000000000        0x8 CMakeFiles/kiibohd.elf.dir/Macro/PartialMap/macro.c.obj
 .group         0x0000000000000000        0x8 CMakeFiles/kiibohd.elf.dir/Macro/PartialMap/macro.c.obj
 .group         0x0000000000000000        0x8 CMakeFiles/kiibohd.elf.dir/Macro/PartialMap/macro.c.obj
 .group         0x0000000000000000        0x8 CMakeFiles/kiibohd.elf.dir/Macro/PartialMap/macro.c.obj
 .group         0x0000000000000000        0x8 CMakeFiles/kiibohd.elf.dir/Macro/PartialMap/macro.c.obj
 .group         0x0000000000000000        0x8 CMakeFiles/kiibohd.elf.dir/Macro/PartialMap/macro.c.obj
 .text          0x0000000000000000        0x0 CMakeFiles/kiibohd.elf.dir/Macro/PartialMap/macro.c.obj
 .data          0x0000000000000000        0x0 CMakeFiles/kiibohd.elf.dir/Macro/PartialMap/macro.c.obj
 .bss           0x0000000000000000        0x0 CMakeFiles/kiibohd.elf.dir/Macro/PartialMap/macro.c.obj
 .text.Macro_analogState
                0x0000000000000000       0x4c CMakeFiles/kiibohd.elf.dir/Macro/PartialMap/macro.c.obj
 .text.Macro_ledState
                0x0000000000000000       0x28 CMakeFiles/kiibohd.elf.dir/Macro/PartialMap/macro.c.obj
 .debug_macro   0x0000000000000000      0x886 CMakeFiles/kiibohd.elf.dir/Macro/PartialMap/macro.c.obj
 .debug_macro   0x0000000000000000       0x16 CMakeFiles/kiibohd.elf.dir/Macro/PartialMap/macro.c.obj
 .debug_macro   0x0000000000000000       0x22 CMakeFiles/kiibohd.elf.dir/Macro/PartialMap/macro.c.obj
 .debug_macro   0x0000000000000000       0x87 CMakeFiles/kiibohd.elf.dir/Macro/PartialMap/macro.c.obj
 .debug_macro   0x0000000000000000       0x44 CMakeFiles/kiibohd.elf.dir/Macro/PartialMap/macro.c.obj
 .debug_macro   0x0000000000000000       0xfd CMakeFiles/kiibohd.elf.dir/Macro/PartialMap/macro.c.obj
 .debug_macro   0x0000000000000000       0x5e CMakeFiles/kiibohd.elf.dir/Macro/PartialMap/macro.c.obj
 .debug_macro   0x0000000000000000      0x1df CMakeFiles/kiibohd.elf.dir/Macro/PartialMap/macro.c.obj
 .debug_macro   0x0000000000000000     0x301e CMakeFiles/kiibohd.elf.dir/Macro/PartialMap/macro.c.obj
 .debug_macro   0x0000000000000000       0x10 CMakeFiles/kiibohd.elf.dir/Macro/PartialMap/macro.c.obj
 .debug_macro   0x0000000000000000       0x10 CMakeFiles/kiibohd.elf.dir/Macro/PartialMap/macro.c.obj
 .debug_macro   0x0000000000000000       0x7c CMakeFiles/kiibohd.elf.dir/Macro/PartialMap/macro.c.obj
 .debug_macro   0x0000000000000000       0x10 CMakeFiles/kiibohd.elf.dir/Macro/PartialMap/macro.c.obj
 .debug_macro   0x0000000000000000       0x3a CMakeFiles/kiibohd.elf.dir/Macro/PartialMap/macro.c.obj
 .debug_macro   0x0000000000000000       0x9a CMakeFiles/kiibohd.elf.dir/Macro/PartialMap/macro.c.obj
 .debug_macro   0x0000000000000000     0x1217 CMakeFiles/kiibohd.elf.dir/Macro/PartialMap/macro.c.obj
 .debug_macro   0x0000000000000000      0x18a CMakeFiles/kiibohd.elf.dir/Macro/PartialMap/macro.c.obj
 .debug_macro   0x0000000000000000       0x57 CMakeFiles/kiibohd.elf.dir/Macro/PartialMap/macro.c.obj
 .group         0x0000000000000000        0x8 CMakeFiles/kiibohd.elf.dir/Macro/PartialMap/result.c.obj
 .group         0x0000000000000000        0x8 CMakeFiles/kiibohd.elf.dir/Macro/PartialMap/result.c.obj
 .group         0x0000000000000000        0x8 CMakeFiles/kiibohd.elf.dir/Macro/PartialMap/result.c.obj
 .group         0x0000000000000000        0x8 CMakeFiles/kiibohd.elf.dir/Macro/PartialMap/result.c.obj
 .group         0x0000000000000000        0x8 CMakeFiles/kiibohd.elf.dir/Macro/PartialMap/result.c.obj
 .group         0x0000000000000000        0x8 CMakeFiles/kiibohd.elf.dir/Macro/PartialMap/result.c.obj
 .group         0x0000000000000000        0x8 CMakeFiles/kiibohd.elf.dir/Macro/PartialMap/result.c.obj
 .group         0x0000000000000000        0x8 CMakeFiles/kiibohd.elf.dir/Macro/PartialMap/result.c.obj
 .group         0x0000000000000000        0x8 CMakeFiles/kiibohd.elf.dir/Macro/PartialMap/result.c.obj
 .group         0x0000000000000000        0x8 CMakeFiles/kiibohd.elf.dir/Macro/PartialMap/result.c.obj
 .group         0x0000000000000000        0x8 CMakeFiles/kiibohd.elf.dir/Macro/PartialMap/result.c.obj
 .group         0x0000000000000000        0x8 CMakeFiles/kiibohd.elf.dir/Macro/PartialMap/result.c.obj
 .group         0x0000000000000000        0x8 CMakeFiles/kiibohd.elf.dir/Macro/PartialMap/result.c.obj
 .group         0x0000000000000000        0x8 CMakeFiles/kiibohd.elf.dir/Macro/PartialMap/result.c.obj
 .group         0x0000000000000000        0x8 CMakeFiles/kiibohd.elf.dir/Macro/PartialMap/result.c.obj
 .group         0x0000000000000000        0x8 CMakeFiles/kiibohd.elf.dir/Macro/PartialMap/result.c.obj
 .group         0x0000000000000000        0x8 CMakeFiles/kiibohd.elf.dir/Macro/PartialMap/result.c.obj
 .text          0x0000000000000000        0x0 CMakeFiles/kiibohd.elf.dir/Macro/PartialMap/result.c.obj
 .data          0x0000000000000000        0x0 CMakeFiles/kiibohd.elf.dir/Macro/PartialMap/result.c.obj
 .bss           0x0000000000000000        0x0 CMakeFiles/kiibohd.elf.dir/Macro/PartialMap/result.c.obj
 .text.Result_add
                0x0000000000000000        0x2 CMakeFiles/kiibohd.elf.dir/Macro/PartialMap/result.c.obj
 .debug_macro   0x0000000000000000      0x886 CMakeFiles/kiibohd.elf.dir/Macro/PartialMap/result.c.obj
 .debug_macro   0x0000000000000000       0x16 CMakeFiles/kiibohd.elf.dir/Macro/PartialMap/result.c.obj
 .debug_macro   0x0000000000000000       0x22 CMakeFiles/kiibohd.elf.dir/Macro/PartialMap/result.c.obj
 .debug_macro   0x0000000000000000       0x87 CMakeFiles/kiibohd.elf.dir/Macro/PartialMap/result.c.obj
 .debug_macro   0x0000000000000000       0x44 CMakeFiles/kiibohd.elf.dir/Macro/PartialMap/result.c.obj
 .debug_macro   0x0000000000000000       0xfd CMakeFiles/kiibohd.elf.dir/Macro/PartialMap/result.c.obj
 .debug_macro   0x0000000000000000       0x5e CMakeFiles/kiibohd.elf.dir/Macro/PartialMap/result.c.obj
 .debug_macro   0x0000000000000000      0x1df CMakeFiles/kiibohd.elf.dir/Macro/PartialMap/result.c.obj
 .debug_macro   0x0000000000000000     0x301e CMakeFiles/kiibohd.elf.dir/Macro/PartialMap/result.c.obj
 .debug_macro   0x0000000000000000       0x10 CMakeFiles/kiibohd.elf.dir/Macro/PartialMap/result.c.obj
 .debug_macro   0x0000000000000000       0x10 CMakeFiles/kiibohd.elf.dir/Macro/PartialMap/result.c.obj
 .debug_macro   0x0000000000000000       0x7c CMakeFiles/kiibohd.elf.dir/Macro/PartialMap/result.c.obj
 .debug_macro   0x0000000000000000       0x10 CMakeFiles/kiibohd.elf.dir/Macro/PartialMap/result.c.obj
 .debug_macro   0x0000000000000000       0x9a CMakeFiles/kiibohd.elf.dir/Macro/PartialMap/result.c.obj
 .debug_macro   0x0000000000000000      0x18a CMakeFiles/kiibohd.elf.dir/Macro/PartialMap/result.c.obj
 .debug_macro   0x0000000000000000     0x1217 CMakeFiles/kiibohd.elf.dir/Macro/PartialMap/result.c.obj
 .debug_macro   0x0000000000000000       0x57 CMakeFiles/kiibohd.elf.dir/Macro/PartialMap/result.c.obj
 .group         0x0000000000000000        0x8 CMakeFiles/kiibohd.elf.dir/Macro/PartialMap/trigger.c.obj
 .group         0x0000000000000000        0x8 CMakeFiles/kiibohd.elf.dir/Macro/PartialMap/trigger.c.obj
 .group         0x0000000000000000        0x8 CMakeFiles/kiibohd.elf.dir/Macro/PartialMap/trigger.c.obj
 .group         0x0000000000000000        0x8 CMakeFiles/kiibohd.elf.dir/Macro/PartialMap/trigger.c.obj
 .group         0x0000000000000000        0x8 CMakeFiles/kiibohd.elf.dir/Macro/PartialMap/trigger.c.obj
 .group         0x0000000000000000        0x8 CMakeFiles/kiibohd.elf.dir/Macro/PartialMap/trigger.c.obj
 .group         0x0000000000000000        0x8 CMakeFiles/kiibohd.elf.dir/Macro/PartialMap/trigger.c.obj
 .group         0x0000000000000000        0x8 CMakeFiles/kiibohd.elf.dir/Macro/PartialMap/trigger.c.obj
 .group         0x0000000000000000        0x8 CMakeFiles/kiibohd.elf.dir/Macro/PartialMap/trigger.c.obj
 .group         0x0000000000000000        0x8 CMakeFiles/kiibohd.elf.dir/Macro/PartialMap/trigger.c.obj
 .group         0x0000000000000000        0x8 CMakeFiles/kiibohd.elf.dir/Macro/PartialMap/trigger.c.obj
 .group         0x0000000000000000        0x8 CMakeFiles/kiibohd.elf.dir/Macro/PartialMap/trigger.c.obj
 .group         0x0000000000000000        0x8 CMakeFiles/kiibohd.elf.dir/Macro/PartialMap/trigger.c.obj
 .group         0x0000000000000000        0x8 CMakeFiles/kiibohd.elf.dir/Macro/PartialMap/trigger.c.obj
 .group         0x0000000000000000        0x8 CMakeFiles/kiibohd.elf.dir/Macro/PartialMap/trigger.c.obj
 .group         0x0000000000000000        0x8 CMakeFiles/kiibohd.elf.dir/Macro/PartialMap/trigger.c.obj
 .group         0x0000000000000000        0x8 CMakeFiles/kiibohd.elf.dir/Macro/PartialMap/trigger.c.obj
 .text          0x0000000000000000        0x0 CMakeFiles/kiibohd.elf.dir/Macro/PartialMap/trigger.c.obj
 .data          0x0000000000000000        0x0 CMakeFiles/kiibohd.elf.dir/Macro/PartialMap/trigger.c.obj
 .bss           0x0000000000000000        0x0 CMakeFiles/kiibohd.elf.dir/Macro/PartialMap/trigger.c.obj
 .text.Trigger_state
                0x0000000000000000        0x2 CMakeFiles/kiibohd.elf.dir/Macro/PartialMap/trigger.c.obj
 .text.Trigger_update
                0x0000000000000000        0x4 CMakeFiles/kiibohd.elf.dir/Macro/PartialMap/trigger.c.obj
 .debug_macro   0x0000000000000000      0x886 CMakeFiles/kiibohd.elf.dir/Macro/PartialMap/trigger.c.obj
 .debug_macro   0x0000000000000000       0x16 CMakeFiles/kiibohd.elf.dir/Macro/PartialMap/trigger.c.obj
 .debug_macro   0x0000000000000000       0x22 CMakeFiles/kiibohd.elf.dir/Macro/PartialMap/trigger.c.obj
 .debug_macro   0x0000000000000000       0x87 CMakeFiles/kiibohd.elf.dir/Macro/PartialMap/trigger.c.obj
 .debug_macro   0x0000000000000000       0x44 CMakeFiles/kiibohd.elf.dir/Macro/PartialMap/trigger.c.obj
 .debug_macro   0x0000000000000000       0xfd CMakeFiles/kiibohd.elf.dir/Macro/PartialMap/trigger.c.obj
 .debug_macro   0x0000000000000000       0x5e CMakeFiles/kiibohd.elf.dir/Macro/PartialMap/trigger.c.obj
 .debug_macro   0x0000000000000000      0x1df CMakeFiles/kiibohd.elf.dir/Macro/PartialMap/trigger.c.obj
 .debug_macro   0x0000000000000000     0x301e CMakeFiles/kiibohd.elf.dir/Macro/PartialMap/trigger.c.obj
 .debug_macro   0x0000000000000000       0x10 CMakeFiles/kiibohd.elf.dir/Macro/PartialMap/trigger.c.obj
 .debug_macro   0x0000000000000000       0x10 CMakeFiles/kiibohd.elf.dir/Macro/PartialMap/trigger.c.obj
 .debug_macro   0x0000000000000000       0x7c CMakeFiles/kiibohd.elf.dir/Macro/PartialMap/trigger.c.obj
 .debug_macro   0x0000000000000000       0x10 CMakeFiles/kiibohd.elf.dir/Macro/PartialMap/trigger.c.obj
 .debug_macro   0x0000000000000000       0x9a CMakeFiles/kiibohd.elf.dir/Macro/PartialMap/trigger.c.obj
 .debug_macro   0x0000000000000000      0x18a CMakeFiles/kiibohd.elf.dir/Macro/PartialMap/trigger.c.obj
 .debug_macro   0x0000000000000000     0x1217 CMakeFiles/kiibohd.elf.dir/Macro/PartialMap/trigger.c.obj
 .debug_macro   0x0000000000000000       0x57 CMakeFiles/kiibohd.elf.dir/Macro/PartialMap/trigger.c.obj
 .group         0x0000000000000000        0x8 CMakeFiles/kiibohd.elf.dir/Output/pjrcUSB/output_com.c.obj
 .group         0x0000000000000000        0x8 CMakeFiles/kiibohd.elf.dir/Output/pjrcUSB/output_com.c.obj
 .group         0x0000000000000000        0x8 CMakeFiles/kiibohd.elf.dir/Output/pjrcUSB/output_com.c.obj
 .group         0x0000000000000000        0x8 CMakeFiles/kiibohd.elf.dir/Output/pjrcUSB/output_com.c.obj
 .group         0x0000000000000000        0x8 CMakeFiles/kiibohd.elf.dir/Output/pjrcUSB/output_com.c.obj
 .group         0x0000000000000000        0x8 CMakeFiles/kiibohd.elf.dir/Output/pjrcUSB/output_com.c.obj
 .group         0x0000000000000000        0x8 CMakeFiles/kiibohd.elf.dir/Output/pjrcUSB/output_com.c.obj
 .group         0x0000000000000000        0x8 CMakeFiles/kiibohd.elf.dir/Output/pjrcUSB/output_com.c.obj
 .group         0x0000000000000000        0x8 CMakeFiles/kiibohd.elf.dir/Output/pjrcUSB/output_com.c.obj
 .group         0x0000000000000000        0x8 CMakeFiles/kiibohd.elf.dir/Output/pjrcUSB/output_com.c.obj
 .group         0x0000000000000000        0x8 CMakeFiles/kiibohd.elf.dir/Output/pjrcUSB/output_com.c.obj
 .group         0x0000000000000000        0x8 CMakeFiles/kiibohd.elf.dir/Output/pjrcUSB/output_com.c.obj
 .group         0x0000000000000000        0x8 CMakeFiles/kiibohd.elf.dir/Output/pjrcUSB/output_com.c.obj
 .group         0x0000000000000000        0x8 CMakeFiles/kiibohd.elf.dir/Output/pjrcUSB/output_com.c.obj
 .group         0x0000000000000000        0x8 CMakeFiles/kiibohd.elf.dir/Output/pjrcUSB/output_com.c.obj
 .group         0x0000000000000000        0x8 CMakeFiles/kiibohd.elf.dir/Output/pjrcUSB/output_com.c.obj
 .group         0x0000000000000000        0x8 CMakeFiles/kiibohd.elf.dir/Output/pjrcUSB/output_com.c.obj
 .group         0x0000000000000000        0x8 CMakeFiles/kiibohd.elf.dir/Output/pjrcUSB/output_com.c.obj
 .group         0x0000000000000000        0x8 CMakeFiles/kiibohd.elf.dir/Output/pjrcUSB/output_com.c.obj
 .group         0x0000000000000000        0x8 CMakeFiles/kiibohd.elf.dir/Output/pjrcUSB/output_com.c.obj
 .group         0x0000000000000000        0x8 CMakeFiles/kiibohd.elf.dir/Output/pjrcUSB/output_com.c.obj
 .group         0x0000000000000000        0x8 CMakeFiles/kiibohd.elf.dir/Output/pjrcUSB/output_com.c.obj
 .group         0x0000000000000000        0x8 CMakeFiles/kiibohd.elf.dir/Output/pjrcUSB/output_com.c.obj
 .group         0x0000000000000000        0x8 CMakeFiles/kiibohd.elf.dir/Output/pjrcUSB/output_com.c.obj
 .group         0x0000000000000000        0x8 CMakeFiles/kiibohd.elf.dir/Output/pjrcUSB/output_com.c.obj
 .text          0x0000000000000000        0x0 CMakeFiles/kiibohd.elf.dir/Output/pjrcUSB/output_com.c.obj
 .data          0x0000000000000000        0x0 CMakeFiles/kiibohd.elf.dir/Output/pjrcUSB/output_com.c.obj
 .bss           0x0000000000000000        0x0 CMakeFiles/kiibohd.elf.dir/Output/pjrcUSB/output_com.c.obj
 .text.Output_firmwareReload
                0x0000000000000000        0x4 CMakeFiles/kiibohd.elf.dir/Output/pjrcUSB/output_com.c.obj
 .text.Output_putchar
                0x0000000000000000        0x4 CMakeFiles/kiibohd.elf.dir/Output/pjrcUSB/output_com.c.obj
 .bss.USBKeys_Idle_Count
                0x0000000000000000        0x1 CMakeFiles/kiibohd.elf.dir/Output/pjrcUSB/output_com.c.obj
 .debug_macro   0x0000000000000000      0x886 CMakeFiles/kiibohd.elf.dir/Output/pjrcUSB/output_com.c.obj
 .debug_macro   0x0000000000000000       0x16 CMakeFiles/kiibohd.elf.dir/Output/pjrcUSB/output_com.c.obj
 .debug_macro   0x0000000000000000       0x22 CMakeFiles/kiibohd.elf.dir/Output/pjrcUSB/output_com.c.obj
 .debug_macro   0x0000000000000000       0x87 CMakeFiles/kiibohd.elf.dir/Output/pjrcUSB/output_com.c.obj
 .debug_macro   0x0000000000000000       0x44 CMakeFiles/kiibohd.elf.dir/Output/pjrcUSB/output_com.c.obj
 .debug_macro   0x0000000000000000       0xfd CMakeFiles/kiibohd.elf.dir/Output/pjrcUSB/output_com.c.obj
 .debug_macro   0x0000000000000000       0x5e CMakeFiles/kiibohd.elf.dir/Output/pjrcUSB/output_com.c.obj
 .debug_macro   0x0000000000000000      0x1df CMakeFiles/kiibohd.elf.dir/Output/pjrcUSB/output_com.c.obj
 .debug_macro   0x0000000000000000     0x301e CMakeFiles/kiibohd.elf.dir/Output/pjrcUSB/output_com.c.obj
 .debug_macro   0x0000000000000000       0x10 CMakeFiles/kiibohd.elf.dir/Output/pjrcUSB/output_com.c.obj
 .debug_macro   0x0000000000000000       0x10 CMakeFiles/kiibohd.elf.dir/Output/pjrcUSB/output_com.c.obj
 .debug_macro   0x0000000000000000       0x7c CMakeFiles/kiibohd.elf.dir/Output/pjrcUSB/output_com.c.obj
 .debug_macro   0x0000000000000000       0x10 CMakeFiles/kiibohd.elf.dir/Output/pjrcUSB/output_com.c.obj
 .debug_macro   0x0000000000000000       0x3a CMakeFiles/kiibohd.elf.dir/Output/pjrcUSB/output_com.c.obj
 .debug_macro   0x0000000000000000       0x9a CMakeFiles/kiibohd.elf.dir/Output/pjrcUSB/output_com.c.obj
 .debug_macro   0x0000000000000000      0x18a CMakeFiles/kiibohd.elf.dir/Output/pjrcUSB/output_com.c.obj
 .debug_macro   0x0000000000000000     0x1217 CMakeFiles/kiibohd.elf.dir/Output/pjrcUSB/output_com.c.obj
 .debug_macro   0x0000000000000000       0x57 CMakeFiles/kiibohd.elf.dir/Output/pjrcUSB/output_com.c.obj
 .group         0x0000000000000000        0x8 CMakeFiles/kiibohd.elf.dir/Output/pjrcUSB/arm/usb_desc.c.obj
 .group         0x0000000000000000        0x8 CMakeFiles/kiibohd.elf.dir/Output/pjrcUSB/arm/usb_desc.c.obj
 .group         0x0000000000000000        0x8 CMakeFiles/kiibohd.elf.dir/Output/pjrcUSB/arm/usb_desc.c.obj
 .group         0x0000000000000000        0x8 CMakeFiles/kiibohd.elf.dir/Output/pjrcUSB/arm/usb_desc.c.obj
 .group         0x0000000000000000        0x8 CMakeFiles/kiibohd.elf.dir/Output/pjrcUSB/arm/usb_desc.c.obj
 .group         0x0000000000000000        0x8 CMakeFiles/kiibohd.elf.dir/Output/pjrcUSB/arm/usb_desc.c.obj
 .group         0x0000000000000000        0x8 CMakeFiles/kiibohd.elf.dir/Output/pjrcUSB/arm/usb_desc.c.obj
 .group         0x0000000000000000        0x8 CMakeFiles/kiibohd.elf.dir/Output/pjrcUSB/arm/usb_desc.c.obj
 .group         0x0000000000000000        0x8 CMakeFiles/kiibohd.elf.dir/Output/pjrcUSB/arm/usb_desc.c.obj
 .group         0x0000000000000000        0x8 CMakeFiles/kiibohd.elf.dir/Output/pjrcUSB/arm/usb_desc.c.obj
 .group         0x0000000000000000        0x8 CMakeFiles/kiibohd.elf.dir/Output/pjrcUSB/arm/usb_desc.c.obj
 .group         0x0000000000000000        0x8 CMakeFiles/kiibohd.elf.dir/Output/pjrcUSB/arm/usb_desc.c.obj
 .text          0x0000000000000000        0x0 CMakeFiles/kiibohd.elf.dir/Output/pjrcUSB/arm/usb_desc.c.obj
 .data          0x0000000000000000        0x0 CMakeFiles/kiibohd.elf.dir/Output/pjrcUSB/arm/usb_desc.c.obj
 .bss           0x0000000000000000        0x0 CMakeFiles/kiibohd.elf.dir/Output/pjrcUSB/arm/usb_desc.c.obj
 .debug_macro   0x0000000000000000      0x886 CMakeFiles/kiibohd.elf.dir/Output/pjrcUSB/arm/usb_desc.c.obj
 .debug_macro   0x0000000000000000       0x22 CMakeFiles/kiibohd.elf.dir/Output/pjrcUSB/arm/usb_desc.c.obj
 .debug_macro   0x0000000000000000       0x87 CMakeFiles/kiibohd.elf.dir/Output/pjrcUSB/arm/usb_desc.c.obj
 .debug_macro   0x0000000000000000       0x44 CMakeFiles/kiibohd.elf.dir/Output/pjrcUSB/arm/usb_desc.c.obj
 .debug_macro   0x0000000000000000       0xfd CMakeFiles/kiibohd.elf.dir/Output/pjrcUSB/arm/usb_desc.c.obj
 .debug_macro   0x0000000000000000       0x5e CMakeFiles/kiibohd.elf.dir/Output/pjrcUSB/arm/usb_desc.c.obj
 .debug_macro   0x0000000000000000      0x1df CMakeFiles/kiibohd.elf.dir/Output/pjrcUSB/arm/usb_desc.c.obj
 .debug_macro   0x0000000000000000      0x174 CMakeFiles/kiibohd.elf.dir/Output/pjrcUSB/arm/usb_desc.c.obj
 .debug_macro   0x0000000000000000       0x7c CMakeFiles/kiibohd.elf.dir/Output/pjrcUSB/arm/usb_desc.c.obj
 .debug_macro   0x0000000000000000       0x10 CMakeFiles/kiibohd.elf.dir/Output/pjrcUSB/arm/usb_desc.c.obj
 .debug_macro   0x0000000000000000      0x202 CMakeFiles/kiibohd.elf.dir/Output/pjrcUSB/arm/usb_desc.c.obj
 .debug_macro   0x0000000000000000      0x18a CMakeFiles/kiibohd.elf.dir/Output/pjrcUSB/arm/usb_desc.c.obj
 .group         0x0000000000000000        0x8 CMakeFiles/kiibohd.elf.dir/Output/pjrcUSB/arm/usb_dev.c.obj
 .group         0x0000000000000000        0x8 CMakeFiles/kiibohd.elf.dir/Output/pjrcUSB/arm/usb_dev.c.obj
 .group         0x0000000000000000        0x8 CMakeFiles/kiibohd.elf.dir/Output/pjrcUSB/arm/usb_dev.c.obj
 .group         0x0000000000000000        0x8 CMakeFiles/kiibohd.elf.dir/Output/pjrcUSB/arm/usb_dev.c.obj
 .group         0x0000000000000000        0x8 CMakeFiles/kiibohd.elf.dir/Output/pjrcUSB/arm/usb_dev.c.obj
 .group         0x0000000000000000        0x8 CMakeFiles/kiibohd.elf.dir/Output/pjrcUSB/arm/usb_dev.c.obj
 .group         0x0000000000000000        0x8 CMakeFiles/kiibohd.elf.dir/Output/pjrcUSB/arm/usb_dev.c.obj
 .group         0x0000000000000000        0x8 CMakeFiles/kiibohd.elf.dir/Output/pjrcUSB/arm/usb_dev.c.obj
 .group         0x0000000000000000        0x8 CMakeFiles/kiibohd.elf.dir/Output/pjrcUSB/arm/usb_dev.c.obj
 .group         0x0000000000000000        0x8 CMakeFiles/kiibohd.elf.dir/Output/pjrcUSB/arm/usb_dev.c.obj
 .group         0x0000000000000000        0x8 CMakeFiles/kiibohd.elf.dir/Output/pjrcUSB/arm/usb_dev.c.obj
 .group         0x0000000000000000        0x8 CMakeFiles/kiibohd.elf.dir/Output/pjrcUSB/arm/usb_dev.c.obj
 .group         0x0000000000000000        0x8 CMakeFiles/kiibohd.elf.dir/Output/pjrcUSB/arm/usb_dev.c.obj
 .group         0x0000000000000000        0x8 CMakeFiles/kiibohd.elf.dir/Output/pjrcUSB/arm/usb_dev.c.obj
 .group         0x0000000000000000        0x8 CMakeFiles/kiibohd.elf.dir/Output/pjrcUSB/arm/usb_dev.c.obj
 .group         0x0000000000000000        0x8 CMakeFiles/kiibohd.elf.dir/Output/pjrcUSB/arm/usb_dev.c.obj
 .group         0x0000000000000000        0x8 CMakeFiles/kiibohd.elf.dir/Output/pjrcUSB/arm/usb_dev.c.obj
 .group         0x0000000000000000        0x8 CMakeFiles/kiibohd.elf.dir/Output/pjrcUSB/arm/usb_dev.c.obj
 .group         0x0000000000000000        0x8 CMakeFiles/kiibohd.elf.dir/Output/pjrcUSB/arm/usb_dev.c.obj
 .group         0x0000000000000000        0x8 CMakeFiles/kiibohd.elf.dir/Output/pjrcUSB/arm/usb_dev.c.obj
 .group         0x0000000000000000        0x8 CMakeFiles/kiibohd.elf.dir/Output/pjrcUSB/arm/usb_dev.c.obj
 .text          0x0000000000000000        0x0 CMakeFiles/kiibohd.elf.dir/Output/pjrcUSB/arm/usb_dev.c.obj
 .data          0x0000000000000000        0x0 CMakeFiles/kiibohd.elf.dir/Output/pjrcUSB/arm/usb_dev.c.obj
 .bss           0x0000000000000000        0x0 CMakeFiles/kiibohd.elf.dir/Output/pjrcUSB/arm/usb_dev.c.obj
 .text.usb_tx_byte_count
                0x0000000000000000       0x28 CMakeFiles/kiibohd.elf.dir/Output/pjrcUSB/arm/usb_dev.c.obj
 .text.usb_reinit
                0x0000000000000000       0x24 CMakeFiles/kiibohd.elf.dir/Output/pjrcUSB/arm/usb_dev.c.obj
 .text.usb_configured
                0x0000000000000000        0xc CMakeFiles/kiibohd.elf.dir/Output/pjrcUSB/arm/usb_dev.c.obj
 .debug_macro   0x0000000000000000      0x886 CMakeFiles/kiibohd.elf.dir/Output/pjrcUSB/arm/usb_dev.c.obj
 .debug_macro   0x0000000000000000       0x16 CMakeFiles/kiibohd.elf.dir/Output/pjrcUSB/arm/usb_dev.c.obj
 .debug_macro   0x0000000000000000       0x22 CMakeFiles/kiibohd.elf.dir/Output/pjrcUSB/arm/usb_dev.c.obj
 .debug_macro   0x0000000000000000       0x87 CMakeFiles/kiibohd.elf.dir/Output/pjrcUSB/arm/usb_dev.c.obj
 .debug_macro   0x0000000000000000       0x44 CMakeFiles/kiibohd.elf.dir/Output/pjrcUSB/arm/usb_dev.c.obj
 .debug_macro   0x0000000000000000       0xfd CMakeFiles/kiibohd.elf.dir/Output/pjrcUSB/arm/usb_dev.c.obj
 .debug_macro   0x0000000000000000       0x5e CMakeFiles/kiibohd.elf.dir/Output/pjrcUSB/arm/usb_dev.c.obj
 .debug_macro   0x0000000000000000      0x1df CMakeFiles/kiibohd.elf.dir/Output/pjrcUSB/arm/usb_dev.c.obj
 .debug_macro   0x0000000000000000     0x301e CMakeFiles/kiibohd.elf.dir/Output/pjrcUSB/arm/usb_dev.c.obj
 .debug_macro   0x0000000000000000       0x10 CMakeFiles/kiibohd.elf.dir/Output/pjrcUSB/arm/usb_dev.c.obj
 .debug_macro   0x0000000000000000       0x7c CMakeFiles/kiibohd.elf.dir/Output/pjrcUSB/arm/usb_dev.c.obj
 .debug_macro   0x0000000000000000       0x10 CMakeFiles/kiibohd.elf.dir/Output/pjrcUSB/arm/usb_dev.c.obj
 .debug_macro   0x0000000000000000       0x9a CMakeFiles/kiibohd.elf.dir/Output/pjrcUSB/arm/usb_dev.c.obj
 .debug_macro   0x0000000000000000      0x18a CMakeFiles/kiibohd.elf.dir/Output/pjrcUSB/arm/usb_dev.c.obj
 .debug_macro   0x0000000000000000      0x174 CMakeFiles/kiibohd.elf.dir/Output/pjrcUSB/arm/usb_dev.c.obj
 .debug_macro   0x0000000000000000      0x202 CMakeFiles/kiibohd.elf.dir/Output/pjrcUSB/arm/usb_dev.c.obj
 .debug_macro   0x0000000000000000       0x52 CMakeFiles/kiibohd.elf.dir/Output/pjrcUSB/arm/usb_dev.c.obj
 .debug_macro   0x0000000000000000       0x35 CMakeFiles/kiibohd.elf.dir/Output/pjrcUSB/arm/usb_dev.c.obj
 .debug_macro   0x0000000000000000       0x35 CMakeFiles/kiibohd.elf.dir/Output/pjrcUSB/arm/usb_dev.c.obj
 .debug_macro   0x0000000000000000      0x45d CMakeFiles/kiibohd.elf.dir/Output/pjrcUSB/arm/usb_dev.c.obj
 .debug_macro   0x0000000000000000       0x22 CMakeFiles/kiibohd.elf.dir/Output/pjrcUSB/arm/usb_dev.c.obj
 .group         0x0000000000000000        0x8 CMakeFiles/kiibohd.elf.dir/Output/pjrcUSB/arm/usb_joystick.c.obj
 .text          0x0000000000000000        0x0 CMakeFiles/kiibohd.elf.dir/Output/pjrcUSB/arm/usb_joystick.c.obj
 .data          0x0000000000000000        0x0 CMakeFiles/kiibohd.elf.dir/Output/pjrcUSB/arm/usb_joystick.c.obj
 .bss           0x0000000000000000        0x0 CMakeFiles/kiibohd.elf.dir/Output/pjrcUSB/arm/usb_joystick.c.obj
 .debug_info    0x0000000000000000       0x1d CMakeFiles/kiibohd.elf.dir/Output/pjrcUSB/arm/usb_joystick.c.obj
 .debug_abbrev  0x0000000000000000       0x11 CMakeFiles/kiibohd.elf.dir/Output/pjrcUSB/arm/usb_joystick.c.obj
 .debug_aranges
                0x0000000000000000       0x18 CMakeFiles/kiibohd.elf.dir/Output/pjrcUSB/arm/usb_joystick.c.obj
 .debug_macro   0x0000000000000000       0x11 CMakeFiles/kiibohd.elf.dir/Output/pjrcUSB/arm/usb_joystick.c.obj
 .debug_macro   0x0000000000000000      0x886 CMakeFiles/kiibohd.elf.dir/Output/pjrcUSB/arm/usb_joystick.c.obj
 .debug_line    0x0000000000000000       0x79 CMakeFiles/kiibohd.elf.dir/Output/pjrcUSB/arm/usb_joystick.c.obj
 .debug_str     0x0000000000000000     0x24f4 CMakeFiles/kiibohd.elf.dir/Output/pjrcUSB/arm/usb_joystick.c.obj
 .comment       0x0000000000000000       0x6f CMakeFiles/kiibohd.elf.dir/Output/pjrcUSB/arm/usb_joystick.c.obj
 .ARM.attributes
                0x0000000000000000       0x33 CMakeFiles/kiibohd.elf.dir/Output/pjrcUSB/arm/usb_joystick.c.obj
 .group         0x0000000000000000        0x8 CMakeFiles/kiibohd.elf.dir/Output/pjrcUSB/arm/usb_keyboard.c.obj
 .group         0x0000000000000000        0x8 CMakeFiles/kiibohd.elf.dir/Output/pjrcUSB/arm/usb_keyboard.c.obj
 .group         0x0000000000000000        0x8 CMakeFiles/kiibohd.elf.dir/Output/pjrcUSB/arm/usb_keyboard.c.obj
 .group         0x0000000000000000        0x8 CMakeFiles/kiibohd.elf.dir/Output/pjrcUSB/arm/usb_keyboard.c.obj
 .group         0x0000000000000000        0x8 CMakeFiles/kiibohd.elf.dir/Output/pjrcUSB/arm/usb_keyboard.c.obj
 .group         0x0000000000000000        0x8 CMakeFiles/kiibohd.elf.dir/Output/pjrcUSB/arm/usb_keyboard.c.obj
 .group         0x0000000000000000        0x8 CMakeFiles/kiibohd.elf.dir/Output/pjrcUSB/arm/usb_keyboard.c.obj
 .group         0x0000000000000000        0x8 CMakeFiles/kiibohd.elf.dir/Output/pjrcUSB/arm/usb_keyboard.c.obj
 .group         0x0000000000000000        0x8 CMakeFiles/kiibohd.elf.dir/Output/pjrcUSB/arm/usb_keyboard.c.obj
 .group         0x0000000000000000        0x8 CMakeFiles/kiibohd.elf.dir/Output/pjrcUSB/arm/usb_keyboard.c.obj
 .group         0x0000000000000000        0x8 CMakeFiles/kiibohd.elf.dir/Output/pjrcUSB/arm/usb_keyboard.c.obj
 .group         0x0000000000000000        0x8 CMakeFiles/kiibohd.elf.dir/Output/pjrcUSB/arm/usb_keyboard.c.obj
 .group         0x0000000000000000        0x8 CMakeFiles/kiibohd.elf.dir/Output/pjrcUSB/arm/usb_keyboard.c.obj
 .group         0x0000000000000000        0x8 CMakeFiles/kiibohd.elf.dir/Output/pjrcUSB/arm/usb_keyboard.c.obj
 .group         0x0000000000000000        0x8 CMakeFiles/kiibohd.elf.dir/Output/pjrcUSB/arm/usb_keyboard.c.obj
 .group         0x0000000000000000        0x8 CMakeFiles/kiibohd.elf.dir/Output/pjrcUSB/arm/usb_keyboard.c.obj
 .group         0x0000000000000000        0x8 CMakeFiles/kiibohd.elf.dir/Output/pjrcUSB/arm/usb_keyboard.c.obj
 .group         0x0000000000000000        0x8 CMakeFiles/kiibohd.elf.dir/Output/pjrcUSB/arm/usb_keyboard.c.obj
 .group         0x0000000000000000        0x8 CMakeFiles/kiibohd.elf.dir/Output/pjrcUSB/arm/usb_keyboard.c.obj
 .group         0x0000000000000000        0x8 CMakeFiles/kiibohd.elf.dir/Output/pjrcUSB/arm/usb_keyboard.c.obj
 .group         0x0000000000000000        0x8 CMakeFiles/kiibohd.elf.dir/Output/pjrcUSB/arm/usb_keyboard.c.obj
 .group         0x0000000000000000        0x8 CMakeFiles/kiibohd.elf.dir/Output/pjrcUSB/arm/usb_keyboard.c.obj
 .group         0x0000000000000000        0x8 CMakeFiles/kiibohd.elf.dir/Output/pjrcUSB/arm/usb_keyboard.c.obj
 .group         0x0000000000000000        0x8 CMakeFiles/kiibohd.elf.dir/Output/pjrcUSB/arm/usb_keyboard.c.obj
 .group         0x0000000000000000        0x8 CMakeFiles/kiibohd.elf.dir/Output/pjrcUSB/arm/usb_keyboard.c.obj
 .group         0x0000000000000000        0x8 CMakeFiles/kiibohd.elf.dir/Output/pjrcUSB/arm/usb_keyboard.c.obj
 .group         0x0000000000000000        0x8 CMakeFiles/kiibohd.elf.dir/Output/pjrcUSB/arm/usb_keyboard.c.obj
 .group         0x0000000000000000        0x8 CMakeFiles/kiibohd.elf.dir/Output/pjrcUSB/arm/usb_keyboard.c.obj
 .group         0x0000000000000000        0x8 CMakeFiles/kiibohd.elf.dir/Output/pjrcUSB/arm/usb_keyboard.c.obj
 .text          0x0000000000000000        0x0 CMakeFiles/kiibohd.elf.dir/Output/pjrcUSB/arm/usb_keyboard.c.obj
 .data          0x0000000000000000        0x0 CMakeFiles/kiibohd.elf.dir/Output/pjrcUSB/arm/usb_keyboard.c.obj
 .bss           0x0000000000000000        0x0 CMakeFiles/kiibohd.elf.dir/Output/pjrcUSB/arm/usb_keyboard.c.obj
 .debug_macro   0x0000000000000000      0x886 CMakeFiles/kiibohd.elf.dir/Output/pjrcUSB/arm/usb_keyboard.c.obj
 .debug_macro   0x0000000000000000      0x18a CMakeFiles/kiibohd.elf.dir/Output/pjrcUSB/arm/usb_keyboard.c.obj
 .debug_macro   0x0000000000000000       0x22 CMakeFiles/kiibohd.elf.dir/Output/pjrcUSB/arm/usb_keyboard.c.obj
 .debug_macro   0x0000000000000000       0x35 CMakeFiles/kiibohd.elf.dir/Output/pjrcUSB/arm/usb_keyboard.c.obj
 .debug_macro   0x0000000000000000      0x174 CMakeFiles/kiibohd.elf.dir/Output/pjrcUSB/arm/usb_keyboard.c.obj
 .debug_macro   0x0000000000000000       0x35 CMakeFiles/kiibohd.elf.dir/Output/pjrcUSB/arm/usb_keyboard.c.obj
 .debug_macro   0x0000000000000000       0xfd CMakeFiles/kiibohd.elf.dir/Output/pjrcUSB/arm/usb_keyboard.c.obj
 .debug_macro   0x0000000000000000       0x5e CMakeFiles/kiibohd.elf.dir/Output/pjrcUSB/arm/usb_keyboard.c.obj
 .debug_macro   0x0000000000000000      0x1df CMakeFiles/kiibohd.elf.dir/Output/pjrcUSB/arm/usb_keyboard.c.obj
 .debug_macro   0x0000000000000000     0x301e CMakeFiles/kiibohd.elf.dir/Output/pjrcUSB/arm/usb_keyboard.c.obj
 .debug_macro   0x0000000000000000       0x10 CMakeFiles/kiibohd.elf.dir/Output/pjrcUSB/arm/usb_keyboard.c.obj
 .debug_macro   0x0000000000000000       0x7c CMakeFiles/kiibohd.elf.dir/Output/pjrcUSB/arm/usb_keyboard.c.obj
 .debug_macro   0x0000000000000000       0x10 CMakeFiles/kiibohd.elf.dir/Output/pjrcUSB/arm/usb_keyboard.c.obj
 .debug_macro   0x0000000000000000       0x9a CMakeFiles/kiibohd.elf.dir/Output/pjrcUSB/arm/usb_keyboard.c.obj
 .debug_macro   0x0000000000000000      0x202 CMakeFiles/kiibohd.elf.dir/Output/pjrcUSB/arm/usb_keyboard.c.obj
 .debug_macro   0x0000000000000000      0x45d CMakeFiles/kiibohd.elf.dir/Output/pjrcUSB/arm/usb_keyboard.c.obj
 .group         0x0000000000000000        0x8 CMakeFiles/kiibohd.elf.dir/Output/pjrcUSB/arm/usb_mem.c.obj
 .group         0x0000000000000000        0x8 CMakeFiles/kiibohd.elf.dir/Output/pjrcUSB/arm/usb_mem.c.obj
 .group         0x0000000000000000        0x8 CMakeFiles/kiibohd.elf.dir/Output/pjrcUSB/arm/usb_mem.c.obj
 .group         0x0000000000000000        0x8 CMakeFiles/kiibohd.elf.dir/Output/pjrcUSB/arm/usb_mem.c.obj
 .group         0x0000000000000000        0x8 CMakeFiles/kiibohd.elf.dir/Output/pjrcUSB/arm/usb_mem.c.obj
 .group         0x0000000000000000        0x8 CMakeFiles/kiibohd.elf.dir/Output/pjrcUSB/arm/usb_mem.c.obj
 .group         0x0000000000000000        0x8 CMakeFiles/kiibohd.elf.dir/Output/pjrcUSB/arm/usb_mem.c.obj
 .group         0x0000000000000000        0x8 CMakeFiles/kiibohd.elf.dir/Output/pjrcUSB/arm/usb_mem.c.obj
 .group         0x0000000000000000        0x8 CMakeFiles/kiibohd.elf.dir/Output/pjrcUSB/arm/usb_mem.c.obj
 .group         0x0000000000000000        0x8 CMakeFiles/kiibohd.elf.dir/Output/pjrcUSB/arm/usb_mem.c.obj
 .group         0x0000000000000000        0x8 CMakeFiles/kiibohd.elf.dir/Output/pjrcUSB/arm/usb_mem.c.obj
 .group         0x0000000000000000        0x8 CMakeFiles/kiibohd.elf.dir/Output/pjrcUSB/arm/usb_mem.c.obj
 .group         0x0000000000000000        0x8 CMakeFiles/kiibohd.elf.dir/Output/pjrcUSB/arm/usb_mem.c.obj
 .group         0x0000000000000000        0x8 CMakeFiles/kiibohd.elf.dir/Output/pjrcUSB/arm/usb_mem.c.obj
 .text          0x0000000000000000        0x0 CMakeFiles/kiibohd.elf.dir/Output/pjrcUSB/arm/usb_mem.c.obj
 .data          0x0000000000000000        0x0 CMakeFiles/kiibohd.elf.dir/Output/pjrcUSB/arm/usb_mem.c.obj
 .bss           0x0000000000000000        0x0 CMakeFiles/kiibohd.elf.dir/Output/pjrcUSB/arm/usb_mem.c.obj
 .debug_macro   0x0000000000000000      0x886 CMakeFiles/kiibohd.elf.dir/Output/pjrcUSB/arm/usb_mem.c.obj
 .debug_macro   0x0000000000000000       0x16 CMakeFiles/kiibohd.elf.dir/Output/pjrcUSB/arm/usb_mem.c.obj
 .debug_macro   0x0000000000000000       0x22 CMakeFiles/kiibohd.elf.dir/Output/pjrcUSB/arm/usb_mem.c.obj
 .debug_macro   0x0000000000000000       0x87 CMakeFiles/kiibohd.elf.dir/Output/pjrcUSB/arm/usb_mem.c.obj
 .debug_macro   0x0000000000000000       0x44 CMakeFiles/kiibohd.elf.dir/Output/pjrcUSB/arm/usb_mem.c.obj
 .debug_macro   0x0000000000000000       0xfd CMakeFiles/kiibohd.elf.dir/Output/pjrcUSB/arm/usb_mem.c.obj
 .debug_macro   0x0000000000000000       0x5e CMakeFiles/kiibohd.elf.dir/Output/pjrcUSB/arm/usb_mem.c.obj
 .debug_macro   0x0000000000000000      0x1df CMakeFiles/kiibohd.elf.dir/Output/pjrcUSB/arm/usb_mem.c.obj
 .debug_macro   0x0000000000000000     0x301e CMakeFiles/kiibohd.elf.dir/Output/pjrcUSB/arm/usb_mem.c.obj
 .debug_macro   0x0000000000000000       0x10 CMakeFiles/kiibohd.elf.dir/Output/pjrcUSB/arm/usb_mem.c.obj
 .debug_macro   0x0000000000000000      0x174 CMakeFiles/kiibohd.elf.dir/Output/pjrcUSB/arm/usb_mem.c.obj
 .debug_macro   0x0000000000000000       0x7c CMakeFiles/kiibohd.elf.dir/Output/pjrcUSB/arm/usb_mem.c.obj
 .debug_macro   0x0000000000000000       0x10 CMakeFiles/kiibohd.elf.dir/Output/pjrcUSB/arm/usb_mem.c.obj
 .debug_macro   0x0000000000000000      0x202 CMakeFiles/kiibohd.elf.dir/Output/pjrcUSB/arm/usb_mem.c.obj
 .group         0x0000000000000000        0x8 CMakeFiles/kiibohd.elf.dir/Output/pjrcUSB/arm/usb_mouse.c.obj
 .group         0x0000000000000000        0x8 CMakeFiles/kiibohd.elf.dir/Output/pjrcUSB/arm/usb_mouse.c.obj
 .group         0x0000000000000000        0x8 CMakeFiles/kiibohd.elf.dir/Output/pjrcUSB/arm/usb_mouse.c.obj
 .group         0x0000000000000000        0x8 CMakeFiles/kiibohd.elf.dir/Output/pjrcUSB/arm/usb_mouse.c.obj
 .group         0x0000000000000000        0x8 CMakeFiles/kiibohd.elf.dir/Output/pjrcUSB/arm/usb_mouse.c.obj
 .group         0x0000000000000000        0x8 CMakeFiles/kiibohd.elf.dir/Output/pjrcUSB/arm/usb_mouse.c.obj
 .group         0x0000000000000000        0x8 CMakeFiles/kiibohd.elf.dir/Output/pjrcUSB/arm/usb_mouse.c.obj
 .group         0x0000000000000000        0x8 CMakeFiles/kiibohd.elf.dir/Output/pjrcUSB/arm/usb_mouse.c.obj
 .group         0x0000000000000000        0x8 CMakeFiles/kiibohd.elf.dir/Output/pjrcUSB/arm/usb_mouse.c.obj
 .group         0x0000000000000000        0x8 CMakeFiles/kiibohd.elf.dir/Output/pjrcUSB/arm/usb_mouse.c.obj
 .group         0x0000000000000000        0x8 CMakeFiles/kiibohd.elf.dir/Output/pjrcUSB/arm/usb_mouse.c.obj
 .group         0x0000000000000000        0x8 CMakeFiles/kiibohd.elf.dir/Output/pjrcUSB/arm/usb_mouse.c.obj
 .group         0x0000000000000000        0x8 CMakeFiles/kiibohd.elf.dir/Output/pjrcUSB/arm/usb_mouse.c.obj
 .group         0x0000000000000000        0x8 CMakeFiles/kiibohd.elf.dir/Output/pjrcUSB/arm/usb_mouse.c.obj
 .group         0x0000000000000000        0x8 CMakeFiles/kiibohd.elf.dir/Output/pjrcUSB/arm/usb_mouse.c.obj
 .group         0x0000000000000000        0x8 CMakeFiles/kiibohd.elf.dir/Output/pjrcUSB/arm/usb_mouse.c.obj
 .group         0x0000000000000000        0x8 CMakeFiles/kiibohd.elf.dir/Output/pjrcUSB/arm/usb_mouse.c.obj
 .group         0x0000000000000000        0x8 CMakeFiles/kiibohd.elf.dir/Output/pjrcUSB/arm/usb_mouse.c.obj
 .group         0x0000000000000000        0x8 CMakeFiles/kiibohd.elf.dir/Output/pjrcUSB/arm/usb_mouse.c.obj
 .group         0x0000000000000000        0x8 CMakeFiles/kiibohd.elf.dir/Output/pjrcUSB/arm/usb_mouse.c.obj
 .group         0x0000000000000000        0x8 CMakeFiles/kiibohd.elf.dir/Output/pjrcUSB/arm/usb_mouse.c.obj
 .group         0x0000000000000000        0x8 CMakeFiles/kiibohd.elf.dir/Output/pjrcUSB/arm/usb_mouse.c.obj
 .group         0x0000000000000000        0x8 CMakeFiles/kiibohd.elf.dir/Output/pjrcUSB/arm/usb_mouse.c.obj
 .group         0x0000000000000000        0x8 CMakeFiles/kiibohd.elf.dir/Output/pjrcUSB/arm/usb_mouse.c.obj
 .group         0x0000000000000000        0x8 CMakeFiles/kiibohd.elf.dir/Output/pjrcUSB/arm/usb_mouse.c.obj
 .group         0x0000000000000000        0x8 CMakeFiles/kiibohd.elf.dir/Output/pjrcUSB/arm/usb_mouse.c.obj
 .group         0x0000000000000000        0x8 CMakeFiles/kiibohd.elf.dir/Output/pjrcUSB/arm/usb_mouse.c.obj
 .group         0x0000000000000000        0x8 CMakeFiles/kiibohd.elf.dir/Output/pjrcUSB/arm/usb_mouse.c.obj
 .group         0x0000000000000000        0x8 CMakeFiles/kiibohd.elf.dir/Output/pjrcUSB/arm/usb_mouse.c.obj
 .text          0x0000000000000000        0x0 CMakeFiles/kiibohd.elf.dir/Output/pjrcUSB/arm/usb_mouse.c.obj
 .data          0x0000000000000000        0x0 CMakeFiles/kiibohd.elf.dir/Output/pjrcUSB/arm/usb_mouse.c.obj
 .bss           0x0000000000000000        0x0 CMakeFiles/kiibohd.elf.dir/Output/pjrcUSB/arm/usb_mouse.c.obj
 .text.usb_mouse_move
                0x0000000000000000       0xa8 CMakeFiles/kiibohd.elf.dir/Output/pjrcUSB/arm/usb_mouse.c.obj
 .text.usb_mouse_position
                0x0000000000000000       0xe0 CMakeFiles/kiibohd.elf.dir/Output/pjrcUSB/arm/usb_mouse.c.obj
 .text.usb_mouse_screen_size
                0x0000000000000000       0xc8 CMakeFiles/kiibohd.elf.dir/Output/pjrcUSB/arm/usb_mouse.c.obj
 .bss.usb_mouse_buttons_state
                0x0000000000000000        0x1 CMakeFiles/kiibohd.elf.dir/Output/pjrcUSB/arm/usb_mouse.c.obj
 .data.usb_mouse_scale_x
                0x0000000000000000        0x4 CMakeFiles/kiibohd.elf.dir/Output/pjrcUSB/arm/usb_mouse.c.obj
 .data.usb_mouse_scale_y
                0x0000000000000000        0x4 CMakeFiles/kiibohd.elf.dir/Output/pjrcUSB/arm/usb_mouse.c.obj
 .data.usb_mouse_position_x
                0x0000000000000000        0x2 CMakeFiles/kiibohd.elf.dir/Output/pjrcUSB/arm/usb_mouse.c.obj
 .data.usb_mouse_position_y
                0x0000000000000000        0x2 CMakeFiles/kiibohd.elf.dir/Output/pjrcUSB/arm/usb_mouse.c.obj
 .data.usb_mouse_offset_x
                0x0000000000000000        0x4 CMakeFiles/kiibohd.elf.dir/Output/pjrcUSB/arm/usb_mouse.c.obj
 .data.usb_mouse_offset_y
                0x0000000000000000        0x4 CMakeFiles/kiibohd.elf.dir/Output/pjrcUSB/arm/usb_mouse.c.obj
 .data.usb_mouse_resolution_x
                0x0000000000000000        0x2 CMakeFiles/kiibohd.elf.dir/Output/pjrcUSB/arm/usb_mouse.c.obj
 .data.usb_mouse_resolution_y
                0x0000000000000000        0x2 CMakeFiles/kiibohd.elf.dir/Output/pjrcUSB/arm/usb_mouse.c.obj
 .debug_macro   0x0000000000000000      0x886 CMakeFiles/kiibohd.elf.dir/Output/pjrcUSB/arm/usb_mouse.c.obj
 .debug_macro   0x0000000000000000      0x18a CMakeFiles/kiibohd.elf.dir/Output/pjrcUSB/arm/usb_mouse.c.obj
 .debug_macro   0x0000000000000000       0x22 CMakeFiles/kiibohd.elf.dir/Output/pjrcUSB/arm/usb_mouse.c.obj
 .debug_macro   0x0000000000000000       0x4c CMakeFiles/kiibohd.elf.dir/Output/pjrcUSB/arm/usb_mouse.c.obj
 .debug_macro   0x0000000000000000       0x8d CMakeFiles/kiibohd.elf.dir/Output/pjrcUSB/arm/usb_mouse.c.obj
 .debug_macro   0x0000000000000000       0x35 CMakeFiles/kiibohd.elf.dir/Output/pjrcUSB/arm/usb_mouse.c.obj
 .debug_macro   0x0000000000000000       0x9c CMakeFiles/kiibohd.elf.dir/Output/pjrcUSB/arm/usb_mouse.c.obj
 .debug_macro   0x0000000000000000      0x174 CMakeFiles/kiibohd.elf.dir/Output/pjrcUSB/arm/usb_mouse.c.obj
 .debug_macro   0x0000000000000000       0x4a CMakeFiles/kiibohd.elf.dir/Output/pjrcUSB/arm/usb_mouse.c.obj
 .debug_macro   0x0000000000000000       0x52 CMakeFiles/kiibohd.elf.dir/Output/pjrcUSB/arm/usb_mouse.c.obj
 .debug_macro   0x0000000000000000       0x1f CMakeFiles/kiibohd.elf.dir/Output/pjrcUSB/arm/usb_mouse.c.obj
 .debug_macro   0x0000000000000000       0x43 CMakeFiles/kiibohd.elf.dir/Output/pjrcUSB/arm/usb_mouse.c.obj
 .debug_macro   0x0000000000000000       0x20 CMakeFiles/kiibohd.elf.dir/Output/pjrcUSB/arm/usb_mouse.c.obj
 .debug_macro   0x0000000000000000      0x187 CMakeFiles/kiibohd.elf.dir/Output/pjrcUSB/arm/usb_mouse.c.obj
 .debug_macro   0x0000000000000000      0x30d CMakeFiles/kiibohd.elf.dir/Output/pjrcUSB/arm/usb_mouse.c.obj
 .debug_macro   0x0000000000000000       0x10 CMakeFiles/kiibohd.elf.dir/Output/pjrcUSB/arm/usb_mouse.c.obj
 .debug_macro   0x0000000000000000       0x35 CMakeFiles/kiibohd.elf.dir/Output/pjrcUSB/arm/usb_mouse.c.obj
 .debug_macro   0x0000000000000000       0x10 CMakeFiles/kiibohd.elf.dir/Output/pjrcUSB/arm/usb_mouse.c.obj
 .debug_macro   0x0000000000000000       0xfd CMakeFiles/kiibohd.elf.dir/Output/pjrcUSB/arm/usb_mouse.c.obj
 .debug_macro   0x0000000000000000       0x5e CMakeFiles/kiibohd.elf.dir/Output/pjrcUSB/arm/usb_mouse.c.obj
 .debug_macro   0x0000000000000000      0x1df CMakeFiles/kiibohd.elf.dir/Output/pjrcUSB/arm/usb_mouse.c.obj
 .debug_macro   0x0000000000000000     0x301e CMakeFiles/kiibohd.elf.dir/Output/pjrcUSB/arm/usb_mouse.c.obj
 .debug_macro   0x0000000000000000       0x10 CMakeFiles/kiibohd.elf.dir/Output/pjrcUSB/arm/usb_mouse.c.obj
 .debug_macro   0x0000000000000000       0x7c CMakeFiles/kiibohd.elf.dir/Output/pjrcUSB/arm/usb_mouse.c.obj
 .debug_macro   0x0000000000000000       0x10 CMakeFiles/kiibohd.elf.dir/Output/pjrcUSB/arm/usb_mouse.c.obj
 .debug_macro   0x0000000000000000       0x9a CMakeFiles/kiibohd.elf.dir/Output/pjrcUSB/arm/usb_mouse.c.obj
 .debug_macro   0x0000000000000000      0x202 CMakeFiles/kiibohd.elf.dir/Output/pjrcUSB/arm/usb_mouse.c.obj
 .debug_macro   0x0000000000000000       0x10 CMakeFiles/kiibohd.elf.dir/Output/pjrcUSB/arm/usb_mouse.c.obj
 .debug_macro   0x0000000000000000      0x45d CMakeFiles/kiibohd.elf.dir/Output/pjrcUSB/arm/usb_mouse.c.obj
 .group         0x0000000000000000        0x8 CMakeFiles/kiibohd.elf.dir/Output/pjrcUSB/arm/usb_rawio.c.obj
 .group         0x0000000000000000        0x8 CMakeFiles/kiibohd.elf.dir/Output/pjrcUSB/arm/usb_rawio.c.obj
 .text          0x0000000000000000        0x0 CMakeFiles/kiibohd.elf.dir/Output/pjrcUSB/arm/usb_rawio.c.obj
 .data          0x0000000000000000        0x0 CMakeFiles/kiibohd.elf.dir/Output/pjrcUSB/arm/usb_rawio.c.obj
 .bss           0x0000000000000000        0x0 CMakeFiles/kiibohd.elf.dir/Output/pjrcUSB/arm/usb_rawio.c.obj
 .debug_info    0x0000000000000000       0x25 CMakeFiles/kiibohd.elf.dir/Output/pjrcUSB/arm/usb_rawio.c.obj
 .debug_abbrev  0x0000000000000000       0x1c CMakeFiles/kiibohd.elf.dir/Output/pjrcUSB/arm/usb_rawio.c.obj
 .debug_aranges
                0x0000000000000000       0x18 CMakeFiles/kiibohd.elf.dir/Output/pjrcUSB/arm/usb_rawio.c.obj
 .debug_macro   0x0000000000000000       0x1a CMakeFiles/kiibohd.elf.dir/Output/pjrcUSB/arm/usb_rawio.c.obj
 .debug_macro   0x0000000000000000      0x886 CMakeFiles/kiibohd.elf.dir/Output/pjrcUSB/arm/usb_rawio.c.obj
 .debug_macro   0x0000000000000000      0x18a CMakeFiles/kiibohd.elf.dir/Output/pjrcUSB/arm/usb_rawio.c.obj
 .debug_line    0x0000000000000000       0xd2 CMakeFiles/kiibohd.elf.dir/Output/pjrcUSB/arm/usb_rawio.c.obj
 .debug_str     0x0000000000000000     0x5928 CMakeFiles/kiibohd.elf.dir/Output/pjrcUSB/arm/usb_rawio.c.obj
 .comment       0x0000000000000000       0x6f CMakeFiles/kiibohd.elf.dir/Output/pjrcUSB/arm/usb_rawio.c.obj
 .ARM.attributes
                0x0000000000000000       0x33 CMakeFiles/kiibohd.elf.dir/Output/pjrcUSB/arm/usb_rawio.c.obj
 .group         0x0000000000000000        0x8 CMakeFiles/kiibohd.elf.dir/Output/pjrcUSB/arm/usb_serial.c.obj
 .group         0x0000000000000000        0x8 CMakeFiles/kiibohd.elf.dir/Output/pjrcUSB/arm/usb_serial.c.obj
 .group         0x0000000000000000        0x8 CMakeFiles/kiibohd.elf.dir/Output/pjrcUSB/arm/usb_serial.c.obj
 .group         0x0000000000000000        0x8 CMakeFiles/kiibohd.elf.dir/Output/pjrcUSB/arm/usb_serial.c.obj
 .group         0x0000000000000000        0x8 CMakeFiles/kiibohd.elf.dir/Output/pjrcUSB/arm/usb_serial.c.obj
 .group         0x0000000000000000        0x8 CMakeFiles/kiibohd.elf.dir/Output/pjrcUSB/arm/usb_serial.c.obj
 .group         0x0000000000000000        0x8 CMakeFiles/kiibohd.elf.dir/Output/pjrcUSB/arm/usb_serial.c.obj
 .group         0x0000000000000000        0x8 CMakeFiles/kiibohd.elf.dir/Output/pjrcUSB/arm/usb_serial.c.obj
 .group         0x0000000000000000        0x8 CMakeFiles/kiibohd.elf.dir/Output/pjrcUSB/arm/usb_serial.c.obj
 .group         0x0000000000000000        0x8 CMakeFiles/kiibohd.elf.dir/Output/pjrcUSB/arm/usb_serial.c.obj
 .group         0x0000000000000000        0x8 CMakeFiles/kiibohd.elf.dir/Output/pjrcUSB/arm/usb_serial.c.obj
 .group         0x0000000000000000        0x8 CMakeFiles/kiibohd.elf.dir/Output/pjrcUSB/arm/usb_serial.c.obj
 .group         0x0000000000000000        0x8 CMakeFiles/kiibohd.elf.dir/Output/pjrcUSB/arm/usb_serial.c.obj
 .group         0x0000000000000000        0x8 CMakeFiles/kiibohd.elf.dir/Output/pjrcUSB/arm/usb_serial.c.obj
 .group         0x0000000000000000        0x8 CMakeFiles/kiibohd.elf.dir/Output/pjrcUSB/arm/usb_serial.c.obj
 .group         0x0000000000000000        0x8 CMakeFiles/kiibohd.elf.dir/Output/pjrcUSB/arm/usb_serial.c.obj
 .group         0x0000000000000000        0x8 CMakeFiles/kiibohd.elf.dir/Output/pjrcUSB/arm/usb_serial.c.obj
 .group         0x0000000000000000        0x8 CMakeFiles/kiibohd.elf.dir/Output/pjrcUSB/arm/usb_serial.c.obj
 .group         0x0000000000000000        0x8 CMakeFiles/kiibohd.elf.dir/Output/pjrcUSB/arm/usb_serial.c.obj
 .group         0x0000000000000000        0x8 CMakeFiles/kiibohd.elf.dir/Output/pjrcUSB/arm/usb_serial.c.obj
 .group         0x0000000000000000        0x8 CMakeFiles/kiibohd.elf.dir/Output/pjrcUSB/arm/usb_serial.c.obj
 .group         0x0000000000000000        0x8 CMakeFiles/kiibohd.elf.dir/Output/pjrcUSB/arm/usb_serial.c.obj
 .group         0x0000000000000000        0x8 CMakeFiles/kiibohd.elf.dir/Output/pjrcUSB/arm/usb_serial.c.obj
 .group         0x0000000000000000        0x8 CMakeFiles/kiibohd.elf.dir/Output/pjrcUSB/arm/usb_serial.c.obj
 .group         0x0000000000000000        0x8 CMakeFiles/kiibohd.elf.dir/Output/pjrcUSB/arm/usb_serial.c.obj
 .group         0x0000000000000000        0x8 CMakeFiles/kiibohd.elf.dir/Output/pjrcUSB/arm/usb_serial.c.obj
 .group         0x0000000000000000        0x8 CMakeFiles/kiibohd.elf.dir/Output/pjrcUSB/arm/usb_serial.c.obj
 .group         0x0000000000000000        0x8 CMakeFiles/kiibohd.elf.dir/Output/pjrcUSB/arm/usb_serial.c.obj
 .group         0x0000000000000000        0x8 CMakeFiles/kiibohd.elf.dir/Output/pjrcUSB/arm/usb_serial.c.obj
 .text          0x0000000000000000        0x0 CMakeFiles/kiibohd.elf.dir/Output/pjrcUSB/arm/usb_serial.c.obj
 .data          0x0000000000000000        0x0 CMakeFiles/kiibohd.elf.dir/Output/pjrcUSB/arm/usb_serial.c.obj
 .bss           0x0000000000000000        0x0 CMakeFiles/kiibohd.elf.dir/Output/pjrcUSB/arm/usb_serial.c.obj
 .text.usb_serial_peekchar
                0x0000000000000000       0x38 CMakeFiles/kiibohd.elf.dir/Output/pjrcUSB/arm/usb_serial.c.obj
 .text.usb_serial_read
                0x0000000000000000       0x88 CMakeFiles/kiibohd.elf.dir/Output/pjrcUSB/arm/usb_serial.c.obj
 .text.usb_serial_flush_input
                0x0000000000000000       0x30 CMakeFiles/kiibohd.elf.dir/Output/pjrcUSB/arm/usb_serial.c.obj
 .text.usb_serial_putchar
                0x0000000000000000       0x16 CMakeFiles/kiibohd.elf.dir/Output/pjrcUSB/arm/usb_serial.c.obj
 .text.usb_serial_flush_output
                0x0000000000000000       0x5c CMakeFiles/kiibohd.elf.dir/Output/pjrcUSB/arm/usb_serial.c.obj
 .debug_macro   0x0000000000000000      0x886 CMakeFiles/kiibohd.elf.dir/Output/pjrcUSB/arm/usb_serial.c.obj
 .debug_macro   0x0000000000000000      0x18a CMakeFiles/kiibohd.elf.dir/Output/pjrcUSB/arm/usb_serial.c.obj
 .debug_macro   0x0000000000000000       0x22 CMakeFiles/kiibohd.elf.dir/Output/pjrcUSB/arm/usb_serial.c.obj
 .debug_macro   0x0000000000000000       0x4c CMakeFiles/kiibohd.elf.dir/Output/pjrcUSB/arm/usb_serial.c.obj
 .debug_macro   0x0000000000000000       0x8d CMakeFiles/kiibohd.elf.dir/Output/pjrcUSB/arm/usb_serial.c.obj
 .debug_macro   0x0000000000000000       0x35 CMakeFiles/kiibohd.elf.dir/Output/pjrcUSB/arm/usb_serial.c.obj
 .debug_macro   0x0000000000000000       0x9c CMakeFiles/kiibohd.elf.dir/Output/pjrcUSB/arm/usb_serial.c.obj
 .debug_macro   0x0000000000000000      0x174 CMakeFiles/kiibohd.elf.dir/Output/pjrcUSB/arm/usb_serial.c.obj
 .debug_macro   0x0000000000000000       0x4a CMakeFiles/kiibohd.elf.dir/Output/pjrcUSB/arm/usb_serial.c.obj
 .debug_macro   0x0000000000000000       0x52 CMakeFiles/kiibohd.elf.dir/Output/pjrcUSB/arm/usb_serial.c.obj
 .debug_macro   0x0000000000000000       0x1f CMakeFiles/kiibohd.elf.dir/Output/pjrcUSB/arm/usb_serial.c.obj
 .debug_macro   0x0000000000000000       0x43 CMakeFiles/kiibohd.elf.dir/Output/pjrcUSB/arm/usb_serial.c.obj
 .debug_macro   0x0000000000000000       0x20 CMakeFiles/kiibohd.elf.dir/Output/pjrcUSB/arm/usb_serial.c.obj
 .debug_macro   0x0000000000000000      0x187 CMakeFiles/kiibohd.elf.dir/Output/pjrcUSB/arm/usb_serial.c.obj
 .debug_macro   0x0000000000000000      0x30d CMakeFiles/kiibohd.elf.dir/Output/pjrcUSB/arm/usb_serial.c.obj
 .debug_macro   0x0000000000000000       0x10 CMakeFiles/kiibohd.elf.dir/Output/pjrcUSB/arm/usb_serial.c.obj
 .debug_macro   0x0000000000000000       0x35 CMakeFiles/kiibohd.elf.dir/Output/pjrcUSB/arm/usb_serial.c.obj
 .debug_macro   0x0000000000000000       0x10 CMakeFiles/kiibohd.elf.dir/Output/pjrcUSB/arm/usb_serial.c.obj
 .debug_macro   0x0000000000000000       0xfd CMakeFiles/kiibohd.elf.dir/Output/pjrcUSB/arm/usb_serial.c.obj
 .debug_macro   0x0000000000000000       0x5e CMakeFiles/kiibohd.elf.dir/Output/pjrcUSB/arm/usb_serial.c.obj
 .debug_macro   0x0000000000000000      0x1df CMakeFiles/kiibohd.elf.dir/Output/pjrcUSB/arm/usb_serial.c.obj
 .debug_macro   0x0000000000000000     0x301e CMakeFiles/kiibohd.elf.dir/Output/pjrcUSB/arm/usb_serial.c.obj
 .debug_macro   0x0000000000000000       0x10 CMakeFiles/kiibohd.elf.dir/Output/pjrcUSB/arm/usb_serial.c.obj
 .debug_macro   0x0000000000000000       0x7c CMakeFiles/kiibohd.elf.dir/Output/pjrcUSB/arm/usb_serial.c.obj
 .debug_macro   0x0000000000000000       0x10 CMakeFiles/kiibohd.elf.dir/Output/pjrcUSB/arm/usb_serial.c.obj
 .debug_macro   0x0000000000000000      0x202 CMakeFiles/kiibohd.elf.dir/Output/pjrcUSB/arm/usb_serial.c.obj
 .debug_macro   0x0000000000000000       0x10 CMakeFiles/kiibohd.elf.dir/Output/pjrcUSB/arm/usb_serial.c.obj
 .debug_macro   0x0000000000000000      0x45d CMakeFiles/kiibohd.elf.dir/Output/pjrcUSB/arm/usb_serial.c.obj
 .debug_macro   0x0000000000000000       0x22 CMakeFiles/kiibohd.elf.dir/Output/pjrcUSB/arm/usb_serial.c.obj
 .group         0x0000000000000000        0x8 CMakeFiles/kiibohd.elf.dir/Debug/cli/cli.c.obj
 .group         0x0000000000000000        0x8 CMakeFiles/kiibohd.elf.dir/Debug/cli/cli.c.obj
 .group         0x0000000000000000        0x8 CMakeFiles/kiibohd.elf.dir/Debug/cli/cli.c.obj
 .group         0x0000000000000000        0x8 CMakeFiles/kiibohd.elf.dir/Debug/cli/cli.c.obj
 .group         0x0000000000000000        0x8 CMakeFiles/kiibohd.elf.dir/Debug/cli/cli.c.obj
 .group         0x0000000000000000        0x8 CMakeFiles/kiibohd.elf.dir/Debug/cli/cli.c.obj
 .group         0x0000000000000000        0x8 CMakeFiles/kiibohd.elf.dir/Debug/cli/cli.c.obj
 .group         0x0000000000000000        0x8 CMakeFiles/kiibohd.elf.dir/Debug/cli/cli.c.obj
 .group         0x0000000000000000        0x8 CMakeFiles/kiibohd.elf.dir/Debug/cli/cli.c.obj
 .group         0x0000000000000000        0x8 CMakeFiles/kiibohd.elf.dir/Debug/cli/cli.c.obj
 .group         0x0000000000000000        0x8 CMakeFiles/kiibohd.elf.dir/Debug/cli/cli.c.obj
 .group         0x0000000000000000        0x8 CMakeFiles/kiibohd.elf.dir/Debug/cli/cli.c.obj
 .group         0x0000000000000000        0x8 CMakeFiles/kiibohd.elf.dir/Debug/cli/cli.c.obj
 .group         0x0000000000000000        0x8 CMakeFiles/kiibohd.elf.dir/Debug/cli/cli.c.obj
 .group         0x0000000000000000        0x8 CMakeFiles/kiibohd.elf.dir/Debug/cli/cli.c.obj
 .text          0x0000000000000000        0x0 CMakeFiles/kiibohd.elf.dir/Debug/cli/cli.c.obj
 .data          0x0000000000000000        0x0 CMakeFiles/kiibohd.elf.dir/Debug/cli/cli.c.obj
 .bss           0x0000000000000000        0x0 CMakeFiles/kiibohd.elf.dir/Debug/cli/cli.c.obj
 .debug_macro   0x0000000000000000      0x886 CMakeFiles/kiibohd.elf.dir/Debug/cli/cli.c.obj
 .debug_macro   0x0000000000000000       0x7c CMakeFiles/kiibohd.elf.dir/Debug/cli/cli.c.obj
 .debug_macro   0x0000000000000000       0x16 CMakeFiles/kiibohd.elf.dir/Debug/cli/cli.c.obj
 .debug_macro   0x0000000000000000       0x22 CMakeFiles/kiibohd.elf.dir/Debug/cli/cli.c.obj
 .debug_macro   0x0000000000000000       0x87 CMakeFiles/kiibohd.elf.dir/Debug/cli/cli.c.obj
 .debug_macro   0x0000000000000000       0x44 CMakeFiles/kiibohd.elf.dir/Debug/cli/cli.c.obj
 .debug_macro   0x0000000000000000       0xfd CMakeFiles/kiibohd.elf.dir/Debug/cli/cli.c.obj
 .debug_macro   0x0000000000000000       0x5e CMakeFiles/kiibohd.elf.dir/Debug/cli/cli.c.obj
 .debug_macro   0x0000000000000000      0x1df CMakeFiles/kiibohd.elf.dir/Debug/cli/cli.c.obj
 .debug_macro   0x0000000000000000     0x301e CMakeFiles/kiibohd.elf.dir/Debug/cli/cli.c.obj
 .debug_macro   0x0000000000000000       0x10 CMakeFiles/kiibohd.elf.dir/Debug/cli/cli.c.obj
 .debug_macro   0x0000000000000000       0x10 CMakeFiles/kiibohd.elf.dir/Debug/cli/cli.c.obj
 .debug_macro   0x0000000000000000       0x3a CMakeFiles/kiibohd.elf.dir/Debug/cli/cli.c.obj
 .debug_macro   0x0000000000000000       0x9a CMakeFiles/kiibohd.elf.dir/Debug/cli/cli.c.obj
 .debug_macro   0x0000000000000000      0x18a CMakeFiles/kiibohd.elf.dir/Debug/cli/cli.c.obj
 .group         0x0000000000000000        0x8 CMakeFiles/kiibohd.elf.dir/Debug/led/led.c.obj
 .group         0x0000000000000000        0x8 CMakeFiles/kiibohd.elf.dir/Debug/led/led.c.obj
 .group         0x0000000000000000        0x8 CMakeFiles/kiibohd.elf.dir/Debug/led/led.c.obj
 .group         0x0000000000000000        0x8 CMakeFiles/kiibohd.elf.dir/Debug/led/led.c.obj
 .group         0x0000000000000000        0x8 CMakeFiles/kiibohd.elf.dir/Debug/led/led.c.obj
 .group         0x0000000000000000        0x8 CMakeFiles/kiibohd.elf.dir/Debug/led/led.c.obj
 .group         0x0000000000000000        0x8 CMakeFiles/kiibohd.elf.dir/Debug/led/led.c.obj
 .group         0x0000000000000000        0x8 CMakeFiles/kiibohd.elf.dir/Debug/led/led.c.obj
 .group         0x0000000000000000        0x8 CMakeFiles/kiibohd.elf.dir/Debug/led/led.c.obj
 .group         0x0000000000000000        0x8 CMakeFiles/kiibohd.elf.dir/Debug/led/led.c.obj
 .text          0x0000000000000000        0x0 CMakeFiles/kiibohd.elf.dir/Debug/led/led.c.obj
 .data          0x0000000000000000        0x0 CMakeFiles/kiibohd.elf.dir/Debug/led/led.c.obj
 .bss           0x0000000000000000        0x0 CMakeFiles/kiibohd.elf.dir/Debug/led/led.c.obj
 .debug_macro   0x0000000000000000      0x886 CMakeFiles/kiibohd.elf.dir/Debug/led/led.c.obj
 .debug_macro   0x0000000000000000       0x16 CMakeFiles/kiibohd.elf.dir/Debug/led/led.c.obj
 .debug_macro   0x0000000000000000       0x22 CMakeFiles/kiibohd.elf.dir/Debug/led/led.c.obj
 .debug_macro   0x0000000000000000       0x87 CMakeFiles/kiibohd.elf.dir/Debug/led/led.c.obj
 .debug_macro   0x0000000000000000       0x44 CMakeFiles/kiibohd.elf.dir/Debug/led/led.c.obj
 .debug_macro   0x0000000000000000       0xfd CMakeFiles/kiibohd.elf.dir/Debug/led/led.c.obj
 .debug_macro   0x0000000000000000       0x5e CMakeFiles/kiibohd.elf.dir/Debug/led/led.c.obj
 .debug_macro   0x0000000000000000      0x1df CMakeFiles/kiibohd.elf.dir/Debug/led/led.c.obj
 .debug_macro   0x0000000000000000     0x301e CMakeFiles/kiibohd.elf.dir/Debug/led/led.c.obj
 .debug_macro   0x0000000000000000       0x10 CMakeFiles/kiibohd.elf.dir/Debug/led/led.c.obj
 .group         0x0000000000000000        0x8 CMakeFiles/kiibohd.elf.dir/Debug/print/print.c.obj
 .group         0x0000000000000000        0x8 CMakeFiles/kiibohd.elf.dir/Debug/print/print.c.obj
 .group         0x0000000000000000        0x8 CMakeFiles/kiibohd.elf.dir/Debug/print/print.c.obj
 .group         0x0000000000000000        0x8 CMakeFiles/kiibohd.elf.dir/Debug/print/print.c.obj
 .group         0x0000000000000000        0x8 CMakeFiles/kiibohd.elf.dir/Debug/print/print.c.obj
 .group         0x0000000000000000        0x8 CMakeFiles/kiibohd.elf.dir/Debug/print/print.c.obj
 .group         0x0000000000000000        0x8 CMakeFiles/kiibohd.elf.dir/Debug/print/print.c.obj
 .group         0x0000000000000000        0x8 CMakeFiles/kiibohd.elf.dir/Debug/print/print.c.obj
 .group         0x0000000000000000        0x8 CMakeFiles/kiibohd.elf.dir/Debug/print/print.c.obj
 .group         0x0000000000000000        0x8 CMakeFiles/kiibohd.elf.dir/Debug/print/print.c.obj
 .group         0x0000000000000000        0x8 CMakeFiles/kiibohd.elf.dir/Debug/print/print.c.obj
 .text          0x0000000000000000        0x0 CMakeFiles/kiibohd.elf.dir/Debug/print/print.c.obj
 .data          0x0000000000000000        0x0 CMakeFiles/kiibohd.elf.dir/Debug/print/print.c.obj
 .bss           0x0000000000000000        0x0 CMakeFiles/kiibohd.elf.dir/Debug/print/print.c.obj
 .debug_macro   0x0000000000000000      0x886 CMakeFiles/kiibohd.elf.dir/Debug/print/print.c.obj
 .debug_macro   0x0000000000000000       0x22 CMakeFiles/kiibohd.elf.dir/Debug/print/print.c.obj
 .debug_macro   0x0000000000000000       0x87 CMakeFiles/kiibohd.elf.dir/Debug/print/print.c.obj
 .debug_macro   0x0000000000000000       0x44 CMakeFiles/kiibohd.elf.dir/Debug/print/print.c.obj
 .debug_macro   0x0000000000000000       0xfd CMakeFiles/kiibohd.elf.dir/Debug/print/print.c.obj
 .debug_macro   0x0000000000000000       0x5e CMakeFiles/kiibohd.elf.dir/Debug/print/print.c.obj
 .debug_macro   0x0000000000000000      0x1df CMakeFiles/kiibohd.elf.dir/Debug/print/print.c.obj
 .debug_macro   0x0000000000000000       0x7c CMakeFiles/kiibohd.elf.dir/Debug/print/print.c.obj
 .debug_macro   0x0000000000000000       0x10 CMakeFiles/kiibohd.elf.dir/Debug/print/print.c.obj
 .debug_macro   0x0000000000000000       0x9a CMakeFiles/kiibohd.elf.dir/Debug/print/print.c.obj

Memory Configuration

Name             Origin             Length             Attributes
FLASH            0x0000000000002000 0x000000000003e000 xr
RAM              0x000000001fff8000 0x0000000000010000 xrw
*default*        0x0000000000000000 0xffffffffffffffff

Linker script and memory map

LOAD CMakeFiles/kiibohd.elf.dir/main.c.obj
LOAD CMakeFiles/kiibohd.elf.dir/Lib/mk20dx.c.obj
LOAD CMakeFiles/kiibohd.elf.dir/Lib/delay.c.obj
LOAD CMakeFiles/kiibohd.elf.dir/Scan/ISSILed/led_scan.c.obj
LOAD CMakeFiles/kiibohd.elf.dir/Scan/MatrixARM/matrix_scan.c.obj
LOAD CMakeFiles/kiibohd.elf.dir/Scan/STLcd/lcd_scan.c.obj
LOAD CMakeFiles/kiibohd.elf.dir/Scan/UARTConnect/connect_scan.c.obj
LOAD CMakeFiles/kiibohd.elf.dir/Scan/Infinity_Ergodox/scan_loop.c.obj
LOAD CMakeFiles/kiibohd.elf.dir/Macro/PartialMap/macro.c.obj
LOAD CMakeFiles/kiibohd.elf.dir/Macro/PartialMap/result.c.obj
LOAD CMakeFiles/kiibohd.elf.dir/Macro/PartialMap/trigger.c.obj
LOAD CMakeFiles/kiibohd.elf.dir/Output/pjrcUSB/output_com.c.obj
LOAD CMakeFiles/kiibohd.elf.dir/Output/pjrcUSB/arm/usb_desc.c.obj
LOAD CMakeFiles/kiibohd.elf.dir/Output/pjrcUSB/arm/usb_dev.c.obj
LOAD CMakeFiles/kiibohd.elf.dir/Output/pjrcUSB/arm/usb_joystick.c.obj
LOAD CMakeFiles/kiibohd.elf.dir/Output/pjrcUSB/arm/usb_keyboard.c.obj
LOAD CMakeFiles/kiibohd.elf.dir/Output/pjrcUSB/arm/usb_mem.c.obj
LOAD CMakeFiles/kiibohd.elf.dir/Output/pjrcUSB/arm/usb_mouse.c.obj
LOAD CMakeFiles/kiibohd.elf.dir/Output/pjrcUSB/arm/usb_rawio.c.obj
LOAD CMakeFiles/kiibohd.elf.dir/Output/pjrcUSB/arm/usb_serial.c.obj
LOAD CMakeFiles/kiibohd.elf.dir/Debug/cli/cli.c.obj
LOAD CMakeFiles/kiibohd.elf.dir/Debug/led/led.c.obj
LOAD CMakeFiles/kiibohd.elf.dir/Debug/print/print.c.obj
                0x0000000000002000                _app_rom = ORIGIN (FLASH)
                0x0000000000040000                _app_rom_end = (ORIGIN (FLASH) + LENGTH (FLASH))

.text           0x0000000000002000     0xa584
                0x0000000000000000                . = 0x0
 *(.vectors)
 .vectors       0x0000000000002000      0x1bc CMakeFiles/kiibohd.elf.dir/Lib/mk20dx.c.obj
                0x0000000000002000                gVectors
 *(.startup*)
 .startup       0x00000000000021bc      0x154 CMakeFiles/kiibohd.elf.dir/Lib/mk20dx.c.obj
                0x00000000000021bc                ResetHandler
                0x0000000000000400                . = 0x400
 *fill*         0x0000000000002310       0xf0 
 *(.flashconfig)
 *(.text*)
 .text.startup.main
                0x0000000000002400       0x2c CMakeFiles/kiibohd.elf.dir/main.c.obj
                0x0000000000002400                main
 .text.systick_default_isr
                0x000000000000242c       0x10 CMakeFiles/kiibohd.elf.dir/Lib/mk20dx.c.obj
                0x000000000000242c                systick_isr
                0x000000000000242c                systick_default_isr
 .text.fault_isr
                0x000000000000243c       0x40 CMakeFiles/kiibohd.elf.dir/Lib/mk20dx.c.obj
                0x000000000000243c                fault_isr
 .text.unused_isr
                0x000000000000247c        0x6 CMakeFiles/kiibohd.elf.dir/Lib/mk20dx.c.obj
                0x000000000000247c                dma_ch0_isr
                0x000000000000247c                dma_ch6_isr
                0x000000000000247c                uart0_lon_isr
                0x000000000000247c                dma_ch8_isr
                0x000000000000247c                dma_error_isr
                0x000000000000247c                portd_isr
                0x000000000000247c                porte_isr
                0x000000000000247c                portb_isr
                0x000000000000247c                spi1_isr
                0x000000000000247c                uart3_status_isr
                0x000000000000247c                mcm_isr
                0x000000000000247c                uart1_status_isr
                0x000000000000247c                watchdog_isr
                0x000000000000247c                i2c1_isr
                0x000000000000247c                dma_ch11_isr
                0x000000000000247c                i2c2_isr
                0x000000000000247c                pit1_isr
                0x000000000000247c                dma_ch4_isr
                0x000000000000247c                software_isr
                0x000000000000247c                dma_ch7_isr
                0x000000000000247c                lptmr_isr
                0x000000000000247c                ftm2_isr
                0x000000000000247c                uart5_status_isr
                0x000000000000247c                dma_ch9_isr
                0x000000000000247c                pit2_isr
                0x000000000000247c                pit0_isr
                0x000000000000247c                can0_wakeup_isr
                0x000000000000247c                flash_cmd_isr
                0x000000000000247c                uart2_status_isr
                0x000000000000247c                svcall_isr
                0x000000000000247c                dma_ch15_isr
                0x000000000000247c                uart1_error_isr
                0x000000000000247c                unused_isr
                0x000000000000247c                spi0_isr
                0x000000000000247c                dma_ch3_isr
                0x000000000000247c                flash_error_isr
                0x000000000000247c                uart5_error_isr
                0x000000000000247c                rtc_seconds_isr
                0x000000000000247c                pdb_isr
                0x000000000000247c                dac1_isr
                0x000000000000247c                dma_ch14_isr
                0x000000000000247c                rtc_alarm_isr
                0x000000000000247c                dma_ch2_isr
                0x000000000000247c                ftm1_isr
                0x000000000000247c                dma_ch13_isr
                0x000000000000247c                uart2_error_isr
                0x000000000000247c                usb_charge_isr
                0x000000000000247c                cmt_isr
                0x000000000000247c                ftm3_isr
                0x000000000000247c                tsi0_isr
                0x000000000000247c                spi2_isr
                0x000000000000247c                can0_bus_off_isr
                0x000000000000247c                uart3_error_isr
                0x000000000000247c                porta_isr
                0x000000000000247c                low_voltage_isr
                0x000000000000247c                can0_error_isr
                0x000000000000247c                dma_ch12_isr
                0x000000000000247c                pit3_isr
                0x000000000000247c                portc_isr
                0x000000000000247c                debugmonitor_isr
                0x000000000000247c                cmp1_isr
                0x000000000000247c                ftm0_isr
                0x000000000000247c                i2s0_rx_isr
                0x000000000000247c                uart4_error_isr
                0x000000000000247c                can0_message_isr
                0x000000000000247c                sdhc_isr
                0x000000000000247c                dma_ch10_isr
                0x000000000000247c                uart0_error_isr
                0x000000000000247c                i2s0_tx_isr
                0x000000000000247c                adc1_isr
                0x000000000000247c                cmp0_isr
                0x000000000000247c                dac0_isr
                0x000000000000247c                uart0_status_isr
                0x000000000000247c                mcg_isr
                0x000000000000247c                dma_ch1_isr
                0x000000000000247c                dma_ch5_isr
                0x000000000000247c                can0_rx_warn_isr
                0x000000000000247c                can0_tx_warn_isr
                0x000000000000247c                uart4_status_isr
                0x000000000000247c                cmp2_isr
                0x000000000000247c                pendablesrvreq_isr
                0x000000000000247c                wakeup_isr
                0x000000000000247c                adc0_isr
 *fill*         0x0000000000002482        0x2 
 .text.nmi_default_isr
                0x0000000000002484        0xc CMakeFiles/kiibohd.elf.dir/Lib/mk20dx.c.obj
                0x0000000000002484                nmi_isr
                0x0000000000002484                nmi_default_isr
 .text.hard_fault_default_isr
                0x0000000000002490       0x34 CMakeFiles/kiibohd.elf.dir/Lib/mk20dx.c.obj
                0x0000000000002490                hard_fault_isr
                0x0000000000002490                hard_fault_default_isr
 .text.memmanage_fault_default_isr
                0x00000000000024c4       0x40 CMakeFiles/kiibohd.elf.dir/Lib/mk20dx.c.obj
                0x00000000000024c4                memmanage_fault_default_isr
                0x00000000000024c4                memmanage_fault_isr
 .text.bus_fault_default_isr
                0x0000000000002504       0x40 CMakeFiles/kiibohd.elf.dir/Lib/mk20dx.c.obj
                0x0000000000002504                bus_fault_isr
                0x0000000000002504                bus_fault_default_isr
 .text.usage_fault_default_isr
                0x0000000000002544       0x28 CMakeFiles/kiibohd.elf.dir/Lib/mk20dx.c.obj
                0x0000000000002544                usage_fault_default_isr
                0x0000000000002544                usage_fault_isr
 .text.memset   0x000000000000256c       0x10 CMakeFiles/kiibohd.elf.dir/Lib/mk20dx.c.obj
                0x000000000000256c                memset
 .text.memcpy   0x000000000000257c       0x18 CMakeFiles/kiibohd.elf.dir/Lib/mk20dx.c.obj
                0x000000000000257c                memcpy
 .text.yield    0x0000000000002594        0x2 CMakeFiles/kiibohd.elf.dir/Lib/delay.c.obj
                0x0000000000002594                yield
 *fill*         0x0000000000002596        0x2 
 .text.micros   0x0000000000002598       0x44 CMakeFiles/kiibohd.elf.dir/Lib/delay.c.obj
                0x0000000000002598                micros
 .text.delay    0x00000000000025dc       0x26 CMakeFiles/kiibohd.elf.dir/Lib/delay.c.obj
                0x00000000000025dc                delay
 .text.I2C_BufferLen
                0x0000000000002602       0x14 CMakeFiles/kiibohd.elf.dir/Scan/ISSILed/led_scan.c.obj
                0x0000000000002602                I2C_BufferLen
 *fill*         0x0000000000002616        0x2 
 .text.I2C_BufferPush
                0x0000000000002618       0x60 CMakeFiles/kiibohd.elf.dir/Scan/ISSILed/led_scan.c.obj
                0x0000000000002618                I2C_BufferPush
 .text.I2C_TxBufferPop
                0x0000000000002678       0xa4 CMakeFiles/kiibohd.elf.dir/Scan/ISSILed/led_scan.c.obj
                0x0000000000002678                I2C_TxBufferPop
 .text.i2c0_isr
                0x000000000000271c      0x118 CMakeFiles/kiibohd.elf.dir/Scan/ISSILed/led_scan.c.obj
                0x000000000000271c                i2c0_isr
 .text.I2C_Send
                0x0000000000002834       0xe0 CMakeFiles/kiibohd.elf.dir/Scan/ISSILed/led_scan.c.obj
                0x0000000000002834                I2C_Send
 .text.LED_zeroPages
                0x0000000000002914       0x78 CMakeFiles/kiibohd.elf.dir/Scan/ISSILed/led_scan.c.obj
                0x0000000000002914                LED_zeroPages
 .text.cliFunc_ledZero
                0x000000000000298c       0x1c CMakeFiles/kiibohd.elf.dir/Scan/ISSILed/led_scan.c.obj
                0x000000000000298c                cliFunc_ledZero
 .text.LED_sendPage
                0x00000000000029a8       0x42 CMakeFiles/kiibohd.elf.dir/Scan/ISSILed/led_scan.c.obj
                0x00000000000029a8                LED_sendPage
 *fill*         0x00000000000029ea        0x2 
 .text.cliFunc_ledTest
                0x00000000000029ec       0x20 CMakeFiles/kiibohd.elf.dir/Scan/ISSILed/led_scan.c.obj
                0x00000000000029ec                cliFunc_ledTest
 .text.LED_writeReg
                0x0000000000002a0c       0x4a CMakeFiles/kiibohd.elf.dir/Scan/ISSILed/led_scan.c.obj
                0x0000000000002a0c                LED_writeReg
 *fill*         0x0000000000002a56        0x2 
 .text.LED_setup
                0x0000000000002a58       0xc4 CMakeFiles/kiibohd.elf.dir/Scan/ISSILed/led_scan.c.obj
                0x0000000000002a58                LED_setup
 .text.cliFunc_ledStart
                0x0000000000002b1c       0x34 CMakeFiles/kiibohd.elf.dir/Scan/ISSILed/led_scan.c.obj
                0x0000000000002b1c                cliFunc_ledStart
 .text.LED_readPage
                0x0000000000002b50       0x98 CMakeFiles/kiibohd.elf.dir/Scan/ISSILed/led_scan.c.obj
                0x0000000000002b50                LED_readPage
 .text.cliFunc_ledRPage
                0x0000000000002be8       0x2c CMakeFiles/kiibohd.elf.dir/Scan/ISSILed/led_scan.c.obj
                0x0000000000002be8                cliFunc_ledRPage
 .text.cliFunc_i2cSend
                0x0000000000002c14       0x88 CMakeFiles/kiibohd.elf.dir/Scan/ISSILed/led_scan.c.obj
                0x0000000000002c14                cliFunc_i2cSend
 .text.cliFunc_i2cRecv
                0x0000000000002c9c       0x88 CMakeFiles/kiibohd.elf.dir/Scan/ISSILed/led_scan.c.obj
                0x0000000000002c9c                cliFunc_i2cRecv
 .text.cliFunc_ledWPage
                0x0000000000002d24       0xa0 CMakeFiles/kiibohd.elf.dir/Scan/ISSILed/led_scan.c.obj
                0x0000000000002d24                cliFunc_ledWPage
 .text.LED_scan
                0x0000000000002dc4       0x2c CMakeFiles/kiibohd.elf.dir/Scan/ISSILed/led_scan.c.obj
                0x0000000000002dc4                LED_scan
 .text.LED_currentChange
                0x0000000000002df0        0xc CMakeFiles/kiibohd.elf.dir/Scan/ISSILed/led_scan.c.obj
                0x0000000000002df0                LED_currentChange
 .text.LED_control
                0x0000000000002dfc       0x94 CMakeFiles/kiibohd.elf.dir/Scan/ISSILed/led_scan.c.obj
                0x0000000000002dfc                LED_control
 .text.cliFunc_ledCtrl
                0x0000000000002e90       0x5e CMakeFiles/kiibohd.elf.dir/Scan/ISSILed/led_scan.c.obj
                0x0000000000002e90                cliFunc_ledCtrl
 *fill*         0x0000000000002eee        0x2 
 .text.LED_control_capability
                0x0000000000002ef0       0x98 CMakeFiles/kiibohd.elf.dir/Scan/ISSILed/led_scan.c.obj
                0x0000000000002ef0                LED_control_capability
 .text.cliFunc_matrixInfo
                0x0000000000002f88       0x54 CMakeFiles/kiibohd.elf.dir/Scan/MatrixARM/matrix_scan.c.obj
                0x0000000000002f88                cliFunc_matrixInfo
 .text.cliFunc_matrixState
                0x0000000000002fdc       0x24 CMakeFiles/kiibohd.elf.dir/Scan/MatrixARM/matrix_scan.c.obj
                0x0000000000002fdc                cliFunc_matrixState
 .text.cliFunc_matrixDebug
                0x0000000000003000       0x5c CMakeFiles/kiibohd.elf.dir/Scan/MatrixARM/matrix_scan.c.obj
                0x0000000000003000                cliFunc_matrixDebug
 .text.Matrix_pin
                0x000000000000305c       0xd0 CMakeFiles/kiibohd.elf.dir/Scan/MatrixARM/matrix_scan.c.obj
                0x000000000000305c                Matrix_pin
 .text.Matrix_setup
                0x000000000000312c       0x9c CMakeFiles/kiibohd.elf.dir/Scan/MatrixARM/matrix_scan.c.obj
                0x000000000000312c                Matrix_setup
 .text.Matrix_keyPositionDebug
                0x00000000000031c8       0x38 CMakeFiles/kiibohd.elf.dir/Scan/MatrixARM/matrix_scan.c.obj
                0x00000000000031c8                Matrix_keyPositionDebug
 .text.Matrix_scan
                0x0000000000003200      0x2d0 CMakeFiles/kiibohd.elf.dir/Scan/MatrixARM/matrix_scan.c.obj
                0x0000000000003200                Matrix_scan
 .text.Matrix_currentChange
                0x00000000000034d0        0x2 CMakeFiles/kiibohd.elf.dir/Scan/MatrixARM/matrix_scan.c.obj
                0x00000000000034d0                Matrix_currentChange
 *fill*         0x00000000000034d2        0x2 
 .text.cliFunc_lcdColor
                0x00000000000034d4       0x48 CMakeFiles/kiibohd.elf.dir/Scan/STLcd/lcd_scan.c.obj
                0x00000000000034d4                cliFunc_lcdColor
 .text.SPI_write
                0x000000000000351c       0x50 CMakeFiles/kiibohd.elf.dir/Scan/STLcd/lcd_scan.c.obj
                0x000000000000351c                SPI_write
 .text.LCD_writeControlReg
                0x000000000000356c       0x50 CMakeFiles/kiibohd.elf.dir/Scan/STLcd/lcd_scan.c.obj
                0x000000000000356c                LCD_writeControlReg
 .text.cliFunc_lcdDisp
                0x00000000000035bc       0x78 CMakeFiles/kiibohd.elf.dir/Scan/STLcd/lcd_scan.c.obj
                0x00000000000035bc                cliFunc_lcdDisp
 .text.LCD_writeDataReg
                0x0000000000003634       0x44 CMakeFiles/kiibohd.elf.dir/Scan/STLcd/lcd_scan.c.obj
                0x0000000000003634                LCD_writeDataReg
 .text.cliFunc_lcdCmd
                0x0000000000003678       0x84 CMakeFiles/kiibohd.elf.dir/Scan/STLcd/lcd_scan.c.obj
                0x0000000000003678                cliFunc_lcdCmd
 .text.LCD_writeDisplayReg
                0x00000000000036fc       0x30 CMakeFiles/kiibohd.elf.dir/Scan/STLcd/lcd_scan.c.obj
                0x00000000000036fc                LCD_writeDisplayReg
 .text.cliFunc_lcdTest
                0x000000000000372c       0x20 CMakeFiles/kiibohd.elf.dir/Scan/STLcd/lcd_scan.c.obj
                0x000000000000372c                cliFunc_lcdTest
 .text.LCD_clear
                0x000000000000374c       0x6c CMakeFiles/kiibohd.elf.dir/Scan/STLcd/lcd_scan.c.obj
                0x000000000000374c                LCD_clear
 .text.LCD_initialize
                0x00000000000037b8       0x46 CMakeFiles/kiibohd.elf.dir/Scan/STLcd/lcd_scan.c.obj
                0x00000000000037b8                LCD_initialize
 .text.cliFunc_lcdInit
                0x00000000000037fe        0x4 CMakeFiles/kiibohd.elf.dir/Scan/STLcd/lcd_scan.c.obj
                0x00000000000037fe                cliFunc_lcdInit
 *fill*         0x0000000000003802        0x2 
 .text.LCD_setup
                0x0000000000003804      0x114 CMakeFiles/kiibohd.elf.dir/Scan/STLcd/lcd_scan.c.obj
                0x0000000000003804                LCD_setup
 .text.LCD_scan
                0x0000000000003918       0x78 CMakeFiles/kiibohd.elf.dir/Scan/STLcd/lcd_scan.c.obj
                0x0000000000003918                LCD_scan
 .text.LCD_currentChange
                0x0000000000003990        0x2 CMakeFiles/kiibohd.elf.dir/Scan/STLcd/lcd_scan.c.obj
                0x0000000000003990                LCD_currentChange
 *fill*         0x0000000000003992        0x2 
 .text.LCD_layerStackExact_capability
                0x0000000000003994      0x124 CMakeFiles/kiibohd.elf.dir/Scan/STLcd/lcd_scan.c.obj
                0x0000000000003994                LCD_layerStackExact_capability
 .text.LCD_layerStack_capability
                0x0000000000003ab8       0xc0 CMakeFiles/kiibohd.elf.dir/Scan/STLcd/lcd_scan.c.obj
                0x0000000000003ab8                LCD_layerStack_capability
 .text.Connect_receive_Animation
                0x0000000000003b78       0x10 CMakeFiles/kiibohd.elf.dir/Scan/UARTConnect/connect_scan.c.obj
                0x0000000000003b78                Connect_receive_Animation
 .text.cliFunc_connectDbg
                0x0000000000003b88       0x28 CMakeFiles/kiibohd.elf.dir/Scan/UARTConnect/connect_scan.c.obj
                0x0000000000003b88                cliFunc_connectDbg
 .text.Connect_receive_CableCheck
                0x0000000000003bb0      0x134 CMakeFiles/kiibohd.elf.dir/Scan/UARTConnect/connect_scan.c.obj
                0x0000000000003bb0                Connect_receive_CableCheck
 .text.cliFunc_connectLst
                0x0000000000003ce4       0x58 CMakeFiles/kiibohd.elf.dir/Scan/UARTConnect/connect_scan.c.obj
                0x0000000000003ce4                cliFunc_connectLst
 .text.cliFunc_connectSts
                0x0000000000003d3c      0x148 CMakeFiles/kiibohd.elf.dir/Scan/UARTConnect/connect_scan.c.obj
                0x0000000000003d3c                cliFunc_connectSts
 .text.cliFunc_connectMst
                0x0000000000003e84       0x70 CMakeFiles/kiibohd.elf.dir/Scan/UARTConnect/connect_scan.c.obj
                0x0000000000003e84                cliFunc_connectMst
 .text.Connect_addBytes.part.1
                0x0000000000003ef4       0xc8 CMakeFiles/kiibohd.elf.dir/Scan/UARTConnect/connect_scan.c.obj
 .text.Connect_receive_ScanCode
                0x0000000000003fbc      0x178 CMakeFiles/kiibohd.elf.dir/Scan/UARTConnect/connect_scan.c.obj
                0x0000000000003fbc                Connect_receive_ScanCode
 .text.Connect_addBytes
                0x0000000000004134       0x20 CMakeFiles/kiibohd.elf.dir/Scan/UARTConnect/connect_scan.c.obj
                0x0000000000004134                Connect_addBytes
 .text.Connect_receive_RemoteCapability
                0x0000000000004154      0x114 CMakeFiles/kiibohd.elf.dir/Scan/UARTConnect/connect_scan.c.obj
                0x0000000000004154                Connect_receive_RemoteCapability
 .text.Connect_send_CableCheck
                0x0000000000004268       0x88 CMakeFiles/kiibohd.elf.dir/Scan/UARTConnect/connect_scan.c.obj
                0x0000000000004268                Connect_send_CableCheck
 .text.Connect_send_IdRequest
                0x00000000000042f0       0x40 CMakeFiles/kiibohd.elf.dir/Scan/UARTConnect/connect_scan.c.obj
                0x00000000000042f0                Connect_send_IdRequest
 .text.Connect_send_IdEnumeration
                0x0000000000004330       0x44 CMakeFiles/kiibohd.elf.dir/Scan/UARTConnect/connect_scan.c.obj
                0x0000000000004330                Connect_send_IdEnumeration
 .text.Connect_receive_IdRequest
                0x0000000000004374       0x38 CMakeFiles/kiibohd.elf.dir/Scan/UARTConnect/connect_scan.c.obj
                0x0000000000004374                Connect_receive_IdRequest
 .text.Connect_send_IdReport
                0x00000000000043ac       0x44 CMakeFiles/kiibohd.elf.dir/Scan/UARTConnect/connect_scan.c.obj
                0x00000000000043ac                Connect_send_IdReport
 .text.Connect_receive_IdEnumeration
                0x00000000000043f0       0x4c CMakeFiles/kiibohd.elf.dir/Scan/UARTConnect/connect_scan.c.obj
                0x00000000000043f0                Connect_receive_IdEnumeration
 .text.Connect_receive_IdReport
                0x000000000000443c       0x60 CMakeFiles/kiibohd.elf.dir/Scan/UARTConnect/connect_scan.c.obj
                0x000000000000443c                Connect_receive_IdReport
 .text.Connect_send_ScanCode
                0x000000000000449c       0x5c CMakeFiles/kiibohd.elf.dir/Scan/UARTConnect/connect_scan.c.obj
                0x000000000000449c                Connect_send_ScanCode
 .text.cliFunc_connectCmd
                0x00000000000044f8       0x68 CMakeFiles/kiibohd.elf.dir/Scan/UARTConnect/connect_scan.c.obj
                0x00000000000044f8                cliFunc_connectCmd
 .text.Connect_send_RemoteCapability
                0x0000000000004560       0xc4 CMakeFiles/kiibohd.elf.dir/Scan/UARTConnect/connect_scan.c.obj
                0x0000000000004560                Connect_send_RemoteCapability
 .text.Connect_send_Idle
                0x0000000000004624       0x64 CMakeFiles/kiibohd.elf.dir/Scan/UARTConnect/connect_scan.c.obj
                0x0000000000004624                Connect_send_Idle
 .text.cliFunc_connectIdl
                0x0000000000004688       0x38 CMakeFiles/kiibohd.elf.dir/Scan/UARTConnect/connect_scan.c.obj
                0x0000000000004688                cliFunc_connectIdl
 .text.Connect_reset
                0x00000000000046c0       0x48 CMakeFiles/kiibohd.elf.dir/Scan/UARTConnect/connect_scan.c.obj
                0x00000000000046c0                Connect_reset
 .text.cliFunc_connectRst
                0x0000000000004708       0x28 CMakeFiles/kiibohd.elf.dir/Scan/UARTConnect/connect_scan.c.obj
                0x0000000000004708                cliFunc_connectRst
 .text.Connect_setup
                0x0000000000004730      0x1c0 CMakeFiles/kiibohd.elf.dir/Scan/UARTConnect/connect_scan.c.obj
                0x0000000000004730                Connect_setup
 .text.Connect_rx_process
                0x00000000000048f0      0x1bc CMakeFiles/kiibohd.elf.dir/Scan/UARTConnect/connect_scan.c.obj
                0x00000000000048f0                Connect_rx_process
 .text.Connect_scan
                0x0000000000004aac      0x1e4 CMakeFiles/kiibohd.elf.dir/Scan/UARTConnect/connect_scan.c.obj
                0x0000000000004aac                Connect_scan
 .text.Connect_currentChange
                0x0000000000004c90        0x2 CMakeFiles/kiibohd.elf.dir/Scan/UARTConnect/connect_scan.c.obj
                0x0000000000004c90                Connect_currentChange
 *fill*         0x0000000000004c92        0x2 
 .text.Scan_setup
                0x0000000000004c94       0x28 CMakeFiles/kiibohd.elf.dir/Scan/Infinity_Ergodox/scan_loop.c.obj
                0x0000000000004c94                Scan_setup
 .text.Scan_loop
                0x0000000000004cbc       0x24 CMakeFiles/kiibohd.elf.dir/Scan/Infinity_Ergodox/scan_loop.c.obj
                0x0000000000004cbc                Scan_loop
 .text.Scan_finishedWithMacro
                0x0000000000004ce0        0x2 CMakeFiles/kiibohd.elf.dir/Scan/Infinity_Ergodox/scan_loop.c.obj
                0x0000000000004ce0                Scan_finishedWithMacro
 *fill*         0x0000000000004ce2        0x2 
 .text.Scan_finishedWithOutput
                0x0000000000004ce4        0xc CMakeFiles/kiibohd.elf.dir/Scan/Infinity_Ergodox/scan_loop.c.obj
                0x0000000000004ce4                Scan_finishedWithOutput
 .text.Scan_currentChange
                0x0000000000004cf0       0x1e CMakeFiles/kiibohd.elf.dir/Scan/Infinity_Ergodox/scan_loop.c.obj
                0x0000000000004cf0                Scan_currentChange
 *fill*         0x0000000000004d0e        0x2 
 .text.cliFunc_capList
                0x0000000000004d10       0x58 CMakeFiles/kiibohd.elf.dir/Macro/PartialMap/macro.c.obj
                0x0000000000004d10                cliFunc_capList
 .text.cliFunc_macroStep
                0x0000000000004d68       0x28 CMakeFiles/kiibohd.elf.dir/Macro/PartialMap/macro.c.obj
                0x0000000000004d68                cliFunc_macroStep
 .text.cliFunc_capSelect
                0x0000000000004d90      0x108 CMakeFiles/kiibohd.elf.dir/Macro/PartialMap/macro.c.obj
                0x0000000000004d90                cliFunc_capSelect
 .text.cliFunc_layerDebug
                0x0000000000004e98       0x30 CMakeFiles/kiibohd.elf.dir/Macro/PartialMap/macro.c.obj
                0x0000000000004e98                cliFunc_layerDebug
 .text.cliFunc_layerState
                0x0000000000004ec8       0x70 CMakeFiles/kiibohd.elf.dir/Macro/PartialMap/macro.c.obj
                0x0000000000004ec8                cliFunc_layerState
 .text.cliFunc_macroDebug
                0x0000000000004f38       0x30 CMakeFiles/kiibohd.elf.dir/Macro/PartialMap/macro.c.obj
                0x0000000000004f38                cliFunc_macroDebug
 .text.cliFunc_macroProc
                0x0000000000004f68       0x30 CMakeFiles/kiibohd.elf.dir/Macro/PartialMap/macro.c.obj
                0x0000000000004f68                cliFunc_macroProc
 .text.cliFunc_layerList
                0x0000000000004f98       0x94 CMakeFiles/kiibohd.elf.dir/Macro/PartialMap/macro.c.obj
                0x0000000000004f98                cliFunc_layerList
 .text.cliFunc_macroList
                0x000000000000502c      0x164 CMakeFiles/kiibohd.elf.dir/Macro/PartialMap/macro.c.obj
                0x000000000000502c                cliFunc_macroList
 .text.Macro_layerState
                0x0000000000005190       0xd0 CMakeFiles/kiibohd.elf.dir/Macro/PartialMap/macro.c.obj
                0x0000000000005190                Macro_layerState
 .text.Macro_layerState_capability
                0x0000000000005260       0x28 CMakeFiles/kiibohd.elf.dir/Macro/PartialMap/macro.c.obj
                0x0000000000005260                Macro_layerState_capability
 .text.Macro_layerLatch_capability
                0x0000000000005288       0x28 CMakeFiles/kiibohd.elf.dir/Macro/PartialMap/macro.c.obj
                0x0000000000005288                Macro_layerLatch_capability
 .text.Macro_layerLock_capability
                0x00000000000052b0       0x28 CMakeFiles/kiibohd.elf.dir/Macro/PartialMap/macro.c.obj
                0x00000000000052b0                Macro_layerLock_capability
 .text.Macro_layerShift_capability
                0x00000000000052d8       0x3c CMakeFiles/kiibohd.elf.dir/Macro/PartialMap/macro.c.obj
                0x00000000000052d8                Macro_layerShift_capability
 .text.Macro_layerRotate_capability
                0x0000000000005314       0x70 CMakeFiles/kiibohd.elf.dir/Macro/PartialMap/macro.c.obj
                0x0000000000005314                Macro_layerRotate_capability
 .text.Macro_layerLookup
                0x0000000000005384      0x130 CMakeFiles/kiibohd.elf.dir/Macro/PartialMap/macro.c.obj
                0x0000000000005384                Macro_layerLookup
 .text.Macro_pressReleaseAdd
                0x00000000000054b4       0xbc CMakeFiles/kiibohd.elf.dir/Macro/PartialMap/macro.c.obj
                0x00000000000054b4                Macro_pressReleaseAdd
 .text.Macro_keyState
                0x0000000000005570       0x60 CMakeFiles/kiibohd.elf.dir/Macro/PartialMap/macro.c.obj
                0x0000000000005570                Macro_keyState
 .text.cliFunc_keyHold
                0x00000000000055d0       0x30 CMakeFiles/kiibohd.elf.dir/Macro/PartialMap/macro.c.obj
                0x00000000000055d0                cliFunc_keyHold
 .text.cliFunc_keyPress
                0x0000000000005600       0x30 CMakeFiles/kiibohd.elf.dir/Macro/PartialMap/macro.c.obj
                0x0000000000005600                cliFunc_keyPress
 .text.cliFunc_keyRelease
                0x0000000000005630       0x30 CMakeFiles/kiibohd.elf.dir/Macro/PartialMap/macro.c.obj
                0x0000000000005630                cliFunc_keyRelease
 .text.Macro_appendResultMacroToPendingList
                0x0000000000005660       0x98 CMakeFiles/kiibohd.elf.dir/Macro/PartialMap/macro.c.obj
                0x0000000000005660                Macro_appendResultMacroToPendingList
 .text.Macro_process
                0x00000000000056f8      0x104 CMakeFiles/kiibohd.elf.dir/Macro/PartialMap/macro.c.obj
                0x00000000000056f8                Macro_process
 .text.Macro_setup
                0x00000000000057fc       0x48 CMakeFiles/kiibohd.elf.dir/Macro/PartialMap/macro.c.obj
                0x00000000000057fc                Macro_setup
 .text.macroDebugShowTrigger
                0x0000000000005844      0x110 CMakeFiles/kiibohd.elf.dir/Macro/PartialMap/macro.c.obj
                0x0000000000005844                macroDebugShowTrigger
 .text.macroDebugShowResult
                0x0000000000005954      0x170 CMakeFiles/kiibohd.elf.dir/Macro/PartialMap/macro.c.obj
                0x0000000000005954                macroDebugShowResult
 .text.cliFunc_macroShow
                0x0000000000005ac4       0x40 CMakeFiles/kiibohd.elf.dir/Macro/PartialMap/macro.c.obj
                0x0000000000005ac4                cliFunc_macroShow
 .text.Macro_evalResultMacro
                0x0000000000005b04       0x94 CMakeFiles/kiibohd.elf.dir/Macro/PartialMap/result.c.obj
                0x0000000000005b04                Macro_evalResultMacro
 .text.Result_setup
                0x0000000000005b98       0x2c CMakeFiles/kiibohd.elf.dir/Macro/PartialMap/result.c.obj
                0x0000000000005b98                Result_setup
 .text.Result_process
                0x0000000000005bc4       0x4c CMakeFiles/kiibohd.elf.dir/Macro/PartialMap/result.c.obj
                0x0000000000005bc4                Result_process
 .text.Macro_evalTriggerMacro
                0x0000000000005c10      0x25c CMakeFiles/kiibohd.elf.dir/Macro/PartialMap/trigger.c.obj
                0x0000000000005c10                Macro_evalTriggerMacro
 .text.Trigger_setup
                0x0000000000005e6c       0x1c CMakeFiles/kiibohd.elf.dir/Macro/PartialMap/trigger.c.obj
                0x0000000000005e6c                Trigger_setup
 .text.Trigger_process
                0x0000000000005e88      0x118 CMakeFiles/kiibohd.elf.dir/Macro/PartialMap/trigger.c.obj
                0x0000000000005e88                Trigger_process
 .text.cliFunc_sendKeys
                0x0000000000005fa0       0x24 CMakeFiles/kiibohd.elf.dir/Output/pjrcUSB/output_com.c.obj
                0x0000000000005fa0                cliFunc_sendKeys
 .text.cliFunc_setKeys
                0x0000000000005fc4       0x38 CMakeFiles/kiibohd.elf.dir/Output/pjrcUSB/output_com.c.obj
                0x0000000000005fc4                cliFunc_setKeys
 .text.cliFunc_outputDebug
                0x0000000000005ffc       0x24 CMakeFiles/kiibohd.elf.dir/Output/pjrcUSB/output_com.c.obj
                0x0000000000005ffc                cliFunc_outputDebug
 .text.cliFunc_setMod
                0x0000000000006020       0x20 CMakeFiles/kiibohd.elf.dir/Output/pjrcUSB/output_com.c.obj
                0x0000000000006020                cliFunc_setMod
 .text.cliFunc_readLEDs
                0x0000000000006040       0x28 CMakeFiles/kiibohd.elf.dir/Output/pjrcUSB/output_com.c.obj
                0x0000000000006040                cliFunc_readLEDs
 .text.cliFunc_usbInitTime
                0x0000000000006068       0x54 CMakeFiles/kiibohd.elf.dir/Output/pjrcUSB/output_com.c.obj
                0x0000000000006068                cliFunc_usbInitTime
 .text.cliFunc_kbdProtocol
                0x00000000000060bc       0x54 CMakeFiles/kiibohd.elf.dir/Output/pjrcUSB/output_com.c.obj
                0x00000000000060bc                cliFunc_kbdProtocol
 .text.Output_consCtrlSend_capability
                0x0000000000006110       0x44 CMakeFiles/kiibohd.elf.dir/Output/pjrcUSB/output_com.c.obj
                0x0000000000006110                Output_consCtrlSend_capability
 .text.Output_noneSend_capability
                0x0000000000006154       0x14 CMakeFiles/kiibohd.elf.dir/Output/pjrcUSB/output_com.c.obj
                0x0000000000006154                Output_noneSend_capability
 .text.Output_sysCtrlSend_capability
                0x0000000000006168       0x44 CMakeFiles/kiibohd.elf.dir/Output/pjrcUSB/output_com.c.obj
                0x0000000000006168                Output_sysCtrlSend_capability
 .text.Output_flashMode_capability
                0x00000000000061ac       0x18 CMakeFiles/kiibohd.elf.dir/Output/pjrcUSB/output_com.c.obj
                0x00000000000061ac                Output_flashMode_capability
 .text.Output_usbMouse_capability
                0x00000000000061c4       0x84 CMakeFiles/kiibohd.elf.dir/Output/pjrcUSB/output_com.c.obj
                0x00000000000061c4                Output_usbMouse_capability
 .text.Output_flushBuffers
                0x0000000000006248       0x40 CMakeFiles/kiibohd.elf.dir/Output/pjrcUSB/output_com.c.obj
                0x0000000000006248                Output_flushBuffers
 .text.Output_kbdProtocolBoot_capability
                0x0000000000006288       0x30 CMakeFiles/kiibohd.elf.dir/Output/pjrcUSB/output_com.c.obj
                0x0000000000006288                Output_kbdProtocolBoot_capability
 .text.Output_kbdProtocolNKRO_capability
                0x00000000000062b8       0x34 CMakeFiles/kiibohd.elf.dir/Output/pjrcUSB/output_com.c.obj
                0x00000000000062b8                Output_kbdProtocolNKRO_capability
 .text.Output_toggleKbdProtocol_capability
                0x00000000000062ec       0x34 CMakeFiles/kiibohd.elf.dir/Output/pjrcUSB/output_com.c.obj
                0x00000000000062ec                Output_toggleKbdProtocol_capability
 .text.Output_usbCodeSend_capability
                0x0000000000006320      0x1f8 CMakeFiles/kiibohd.elf.dir/Output/pjrcUSB/output_com.c.obj
                0x0000000000006320                Output_usbCodeSend_capability
 .text.Output_setup
                0x0000000000006518       0x20 CMakeFiles/kiibohd.elf.dir/Output/pjrcUSB/output_com.c.obj
                0x0000000000006518                Output_setup
 .text.Output_send
                0x0000000000006538       0x78 CMakeFiles/kiibohd.elf.dir/Output/pjrcUSB/output_com.c.obj
                0x0000000000006538                Output_send
 .text.Output_availablechar
                0x00000000000065b0        0x4 CMakeFiles/kiibohd.elf.dir/Output/pjrcUSB/output_com.c.obj
                0x00000000000065b0                Output_availablechar
 .text.Output_getchar
                0x00000000000065b4        0x4 CMakeFiles/kiibohd.elf.dir/Output/pjrcUSB/output_com.c.obj
                0x00000000000065b4                Output_getchar
 .text.Output_putstr
                0x00000000000065b8       0x10 CMakeFiles/kiibohd.elf.dir/Output/pjrcUSB/output_com.c.obj
                0x00000000000065b8                Output_putstr
 .text.Output_softReset
                0x00000000000065c8       0x10 CMakeFiles/kiibohd.elf.dir/Output/pjrcUSB/output_com.c.obj
                0x00000000000065c8                Output_softReset
 .text.Output_current_available
                0x00000000000065d8       0x18 CMakeFiles/kiibohd.elf.dir/Output/pjrcUSB/output_com.c.obj
                0x00000000000065d8                Output_current_available
 .text.Output_update_usb_current
                0x00000000000065f0       0x20 CMakeFiles/kiibohd.elf.dir/Output/pjrcUSB/output_com.c.obj
                0x00000000000065f0                Output_update_usb_current
 .text.Output_update_external_current
                0x0000000000006610       0x40 CMakeFiles/kiibohd.elf.dir/Output/pjrcUSB/output_com.c.obj
                0x0000000000006610                Output_update_external_current
 .text.usb_set_config_descriptor_size
                0x0000000000006650       0x10 CMakeFiles/kiibohd.elf.dir/Output/pjrcUSB/arm/usb_desc.c.obj
                0x0000000000006650                usb_set_config_descriptor_size
 .text.endpoint0_transmit
                0x0000000000006660       0x40 CMakeFiles/kiibohd.elf.dir/Output/pjrcUSB/arm/usb_dev.c.obj
 .text.usb_device_check
                0x00000000000066a0       0x30 CMakeFiles/kiibohd.elf.dir/Output/pjrcUSB/arm/usb_dev.c.obj
                0x00000000000066a0                usb_device_check
 .text.usb_rx   0x00000000000066d0       0x38 CMakeFiles/kiibohd.elf.dir/Output/pjrcUSB/arm/usb_dev.c.obj
                0x00000000000066d0                usb_rx
 .text.usb_tx_packet_count
                0x0000000000006708       0x24 CMakeFiles/kiibohd.elf.dir/Output/pjrcUSB/arm/usb_dev.c.obj
                0x0000000000006708                usb_tx_packet_count
 .text.usb_rx_memory
                0x000000000000672c       0x78 CMakeFiles/kiibohd.elf.dir/Output/pjrcUSB/arm/usb_dev.c.obj
                0x000000000000672c                usb_rx_memory
 .text.usb_resume
                0x00000000000067a4       0x44 CMakeFiles/kiibohd.elf.dir/Output/pjrcUSB/arm/usb_dev.c.obj
                0x00000000000067a4                usb_resume
 .text.usb_tx   0x00000000000067e8       0xa4 CMakeFiles/kiibohd.elf.dir/Output/pjrcUSB/arm/usb_dev.c.obj
                0x00000000000067e8                usb_tx
 .text.usb_device_reload
                0x000000000000688c       0x34 CMakeFiles/kiibohd.elf.dir/Output/pjrcUSB/arm/usb_dev.c.obj
                0x000000000000688c                usb_device_reload
 .text.usb_isr  0x00000000000068c0      0x830 CMakeFiles/kiibohd.elf.dir/Output/pjrcUSB/arm/usb_dev.c.obj
                0x00000000000068c0                usb_isr
 .text.usb_init
                0x00000000000070f0      0x120 CMakeFiles/kiibohd.elf.dir/Output/pjrcUSB/arm/usb_dev.c.obj
                0x00000000000070f0                usb_init
 .text.usb_keyboard_send
                0x0000000000007210      0x2dc CMakeFiles/kiibohd.elf.dir/Output/pjrcUSB/arm/usb_keyboard.c.obj
                0x0000000000007210                usb_keyboard_send
 .text.usb_malloc
                0x00000000000074ec       0x3c CMakeFiles/kiibohd.elf.dir/Output/pjrcUSB/arm/usb_mem.c.obj
                0x00000000000074ec                usb_malloc
 .text.usb_free
                0x0000000000007528       0x44 CMakeFiles/kiibohd.elf.dir/Output/pjrcUSB/arm/usb_mem.c.obj
                0x0000000000007528                usb_free
 .text.usb_mouse_send
                0x000000000000756c       0xa8 CMakeFiles/kiibohd.elf.dir/Output/pjrcUSB/arm/usb_mouse.c.obj
                0x000000000000756c                usb_mouse_send
 .text.usb_serial_getchar
                0x0000000000007614       0x4c CMakeFiles/kiibohd.elf.dir/Output/pjrcUSB/arm/usb_serial.c.obj
                0x0000000000007614                usb_serial_getchar
 .text.usb_serial_available
                0x0000000000007660       0x1c CMakeFiles/kiibohd.elf.dir/Output/pjrcUSB/arm/usb_serial.c.obj
                0x0000000000007660                usb_serial_available
 .text.usb_serial_write
                0x000000000000767c       0xdc CMakeFiles/kiibohd.elf.dir/Output/pjrcUSB/arm/usb_serial.c.obj
                0x000000000000767c                usb_serial_write
 .text.usb_serial_flush_callback
                0x0000000000007758       0x48 CMakeFiles/kiibohd.elf.dir/Output/pjrcUSB/arm/usb_serial.c.obj
                0x0000000000007758                usb_serial_flush_callback
 .text.cliFunc_clear
                0x00000000000077a0        0xc CMakeFiles/kiibohd.elf.dir/Debug/cli/cli.c.obj
                0x00000000000077a0                cliFunc_clear
 .text.cliFunc_reload
                0x00000000000077ac       0x24 CMakeFiles/kiibohd.elf.dir/Debug/cli/cli.c.obj
                0x00000000000077ac                cliFunc_reload
 .text.cliFunc_reset
                0x00000000000077d0        0xc CMakeFiles/kiibohd.elf.dir/Debug/cli/cli.c.obj
                0x00000000000077d0                cliFunc_reset
 .text.cliFunc_help
                0x00000000000077dc       0xb0 CMakeFiles/kiibohd.elf.dir/Debug/cli/cli.c.obj
                0x00000000000077dc                cliFunc_help
 .text.cliFunc_led
                0x000000000000788c       0x14 CMakeFiles/kiibohd.elf.dir/Debug/cli/cli.c.obj
                0x000000000000788c                cliFunc_led
 .text.cliFunc_restart
                0x00000000000078a0        0x4 CMakeFiles/kiibohd.elf.dir/Debug/cli/cli.c.obj
                0x00000000000078a0                cliFunc_restart
 .text.cliFunc_version
                0x00000000000078a4       0xd4 CMakeFiles/kiibohd.elf.dir/Debug/cli/cli.c.obj
                0x00000000000078a4                cliFunc_version
 .text.cliFunc_cliDebug
                0x0000000000007978       0x38 CMakeFiles/kiibohd.elf.dir/Debug/cli/cli.c.obj
                0x0000000000007978                cliFunc_cliDebug
 .text.CLI_argumentIsolation
                0x00000000000079b0       0x24 CMakeFiles/kiibohd.elf.dir/Debug/cli/cli.c.obj
                0x00000000000079b0                CLI_argumentIsolation
 .text.CLI_commandLookup
                0x00000000000079d4       0xcc CMakeFiles/kiibohd.elf.dir/Debug/cli/cli.c.obj
                0x00000000000079d4                CLI_commandLookup
 .text.CLI_registerDictionary
                0x0000000000007aa0       0x38 CMakeFiles/kiibohd.elf.dir/Debug/cli/cli.c.obj
                0x0000000000007aa0                CLI_registerDictionary
 .text.CLI_init
                0x0000000000007ad8       0x68 CMakeFiles/kiibohd.elf.dir/Debug/cli/cli.c.obj
                0x0000000000007ad8                CLI_init
 .text.CLI_tabCompletion
                0x0000000000007b40       0xc4 CMakeFiles/kiibohd.elf.dir/Debug/cli/cli.c.obj
                0x0000000000007b40                CLI_tabCompletion
 .text.CLI_wrap
                0x0000000000007c04       0x28 CMakeFiles/kiibohd.elf.dir/Debug/cli/cli.c.obj
                0x0000000000007c04                CLI_wrap
 .text.CLI_saveHistory
                0x0000000000007c2c       0x54 CMakeFiles/kiibohd.elf.dir/Debug/cli/cli.c.obj
                0x0000000000007c2c                CLI_saveHistory
 .text.CLI_retreiveHistory
                0x0000000000007c80       0x54 CMakeFiles/kiibohd.elf.dir/Debug/cli/cli.c.obj
                0x0000000000007c80                CLI_retreiveHistory
 .text.CLI_process
                0x0000000000007cd4      0x230 CMakeFiles/kiibohd.elf.dir/Debug/cli/cli.c.obj
                0x0000000000007cd4                CLI_process
 .text.init_errorLED
                0x0000000000007f04       0x1c CMakeFiles/kiibohd.elf.dir/Debug/led/led.c.obj
                0x0000000000007f04                init_errorLED
 .text.errorLED
                0x0000000000007f20       0x1c CMakeFiles/kiibohd.elf.dir/Debug/led/led.c.obj
                0x0000000000007f20                errorLED
 .text.printstrs
                0x0000000000007f3c       0x34 CMakeFiles/kiibohd.elf.dir/Debug/print/print.c.obj
                0x0000000000007f3c                printstrs
 .text._print   0x0000000000007f70        0x4 CMakeFiles/kiibohd.elf.dir/Debug/print/print.c.obj
                0x0000000000007f70                _print
 .text.lenStr   0x0000000000007f74       0x12 CMakeFiles/kiibohd.elf.dir/Debug/print/print.c.obj
                0x0000000000007f74                lenStr
 .text.revsStr  0x0000000000007f86       0x20 CMakeFiles/kiibohd.elf.dir/Debug/print/print.c.obj
                0x0000000000007f86                revsStr
 .text.int8ToStr
                0x0000000000007fa6       0x28 CMakeFiles/kiibohd.elf.dir/Debug/print/print.c.obj
                0x0000000000007fa6                int8ToStr
 .text.printInt8
                0x0000000000007fce       0x14 CMakeFiles/kiibohd.elf.dir/Debug/print/print.c.obj
                0x0000000000007fce                printInt8
 .text.int16ToStr
                0x0000000000007fe2       0x28 CMakeFiles/kiibohd.elf.dir/Debug/print/print.c.obj
                0x0000000000007fe2                int16ToStr
 .text.printInt16
                0x000000000000800a       0x14 CMakeFiles/kiibohd.elf.dir/Debug/print/print.c.obj
                0x000000000000800a                printInt16
 .text.int32ToStr
                0x000000000000801e       0x2a CMakeFiles/kiibohd.elf.dir/Debug/print/print.c.obj
                0x000000000000801e                int32ToStr
 .text.printInt32
                0x0000000000008048       0x14 CMakeFiles/kiibohd.elf.dir/Debug/print/print.c.obj
                0x0000000000008048                printInt32
 .text.hexToStr_op
                0x000000000000805c       0x5a CMakeFiles/kiibohd.elf.dir/Debug/print/print.c.obj
                0x000000000000805c                hexToStr_op
 .text.printHex_op
                0x00000000000080b6       0x16 CMakeFiles/kiibohd.elf.dir/Debug/print/print.c.obj
                0x00000000000080b6                printHex_op
 .text.hex32ToStr_op
                0x00000000000080cc       0x62 CMakeFiles/kiibohd.elf.dir/Debug/print/print.c.obj
                0x00000000000080cc                hex32ToStr_op
 .text.printHex32_op
                0x000000000000812e       0x16 CMakeFiles/kiibohd.elf.dir/Debug/print/print.c.obj
                0x000000000000812e                printHex32_op
 .text.hex32ToStr16
                0x0000000000008144       0x28 CMakeFiles/kiibohd.elf.dir/Debug/print/print.c.obj
                0x0000000000008144                hex32ToStr16
 .text.eqStr    0x000000000000816c       0x28 CMakeFiles/kiibohd.elf.dir/Debug/print/print.c.obj
                0x000000000000816c                eqStr
 .text.numToInt
                0x0000000000008194       0x82 CMakeFiles/kiibohd.elf.dir/Debug/print/print.c.obj
                0x0000000000008194                numToInt
 *(.rodata*)
 .rodata.str1.1
                0x0000000000008216       0x85 CMakeFiles/kiibohd.elf.dir/Lib/mk20dx.c.obj
                                         0x91 (size before relaxing)
 .rodata.sys_reset_to_loader_magic
                0x000000000000829b       0x16 CMakeFiles/kiibohd.elf.dir/Lib/mk20dx.c.obj
                0x000000000000829b                sys_reset_to_loader_magic
 .rodata        0x00000000000082b1        0x3 CMakeFiles/kiibohd.elf.dir/Scan/ISSILed/led_scan.c.obj
 .rodata.ledWPageCLIDict_DescEntry
                0x00000000000082b4       0x4a CMakeFiles/kiibohd.elf.dir/Scan/ISSILed/led_scan.c.obj
                0x00000000000082b4                ledWPageCLIDict_DescEntry
 .rodata.ledTestCLIDict_DescEntry
                0x00000000000082fe       0x18 CMakeFiles/kiibohd.elf.dir/Scan/ISSILed/led_scan.c.obj
                0x00000000000082fe                ledTestCLIDict_DescEntry
 *fill*         0x0000000000008316        0x2 
 .rodata.ledCLIDict
                0x0000000000008318       0x6c CMakeFiles/kiibohd.elf.dir/Scan/ISSILed/led_scan.c.obj
                0x0000000000008318                ledCLIDict
 .rodata.ledRPageCLIDict_DescEntry
                0x0000000000008384       0x1e CMakeFiles/kiibohd.elf.dir/Scan/ISSILed/led_scan.c.obj
                0x0000000000008384                ledRPageCLIDict_DescEntry
 .rodata.ledStartCLIDict_DescEntry
                0x00000000000083a2       0x1b CMakeFiles/kiibohd.elf.dir/Scan/ISSILed/led_scan.c.obj
                0x00000000000083a2                ledStartCLIDict_DescEntry
 .rodata.str1.1
                0x00000000000083bd      0x1ef CMakeFiles/kiibohd.elf.dir/Scan/ISSILed/led_scan.c.obj
                                        0x1f4 (size before relaxing)
 .rodata.ledCtrlCLIDict_DescEntry
                0x00000000000085ac       0x33 CMakeFiles/kiibohd.elf.dir/Scan/ISSILed/led_scan.c.obj
                0x00000000000085ac                ledCtrlCLIDict_DescEntry
 .rodata.LED_defaultBrightness1
                0x00000000000085df       0x92 CMakeFiles/kiibohd.elf.dir/Scan/ISSILed/led_scan.c.obj
                0x00000000000085df                LED_defaultBrightness1
 .rodata.ledZeroCLIDict_DescEntry
                0x0000000000008671       0x31 CMakeFiles/kiibohd.elf.dir/Scan/ISSILed/led_scan.c.obj
                0x0000000000008671                ledZeroCLIDict_DescEntry
 .rodata.i2cRecvCLIDict_DescEntry
                0x00000000000086a2       0x79 CMakeFiles/kiibohd.elf.dir/Scan/ISSILed/led_scan.c.obj
                0x00000000000086a2                i2cRecvCLIDict_DescEntry
 .rodata.i2cSendCLIDict_DescEntry
                0x000000000000871b       0x44 CMakeFiles/kiibohd.elf.dir/Scan/ISSILed/led_scan.c.obj
                0x000000000000871b                i2cSendCLIDict_DescEntry
 .rodata.LED_ledEnableMask1
                0x000000000000875f       0x14 CMakeFiles/kiibohd.elf.dir/Scan/ISSILed/led_scan.c.obj
                0x000000000000875f                LED_ledEnableMask1
 .rodata.ledCLIDictName
                0x0000000000008773       0x19 CMakeFiles/kiibohd.elf.dir/Scan/ISSILed/led_scan.c.obj
                0x0000000000008773                ledCLIDictName
 .rodata.matrixCLIDict
                0x000000000000878c       0x30 CMakeFiles/kiibohd.elf.dir/Scan/MatrixARM/matrix_scan.c.obj
                0x000000000000878c                matrixCLIDict
 .rodata.matrixDebugCLIDict_DescEntry
                0x00000000000087bc       0x86 CMakeFiles/kiibohd.elf.dir/Scan/MatrixARM/matrix_scan.c.obj
                0x00000000000087bc                matrixDebugCLIDict_DescEntry
 .rodata.str1.1
                0x0000000000008842      0x1ce CMakeFiles/kiibohd.elf.dir/Scan/MatrixARM/matrix_scan.c.obj
                                        0x1d8 (size before relaxing)
 .rodata.matrixStateCLIDict_DescEntry
                0x0000000000008a10       0x9a CMakeFiles/kiibohd.elf.dir/Scan/MatrixARM/matrix_scan.c.obj
                0x0000000000008a10                matrixStateCLIDict_DescEntry
 .rodata.matrixInfoCLIDict_DescEntry
                0x0000000000008aaa       0x28 CMakeFiles/kiibohd.elf.dir/Scan/MatrixARM/matrix_scan.c.obj
                0x0000000000008aaa                matrixInfoCLIDict_DescEntry
 .rodata.matrixCLIDictName
                0x0000000000008ad2       0x17 CMakeFiles/kiibohd.elf.dir/Scan/MatrixARM/matrix_scan.c.obj
                0x0000000000008ad2                matrixCLIDictName
 *fill*         0x0000000000008ae9        0x1 
 .rodata        0x0000000000008aea      0x53c CMakeFiles/kiibohd.elf.dir/Scan/STLcd/lcd_scan.c.obj
 .rodata.lcdTestCLIDict_DescEntry
                0x0000000000009026       0x1a CMakeFiles/kiibohd.elf.dir/Scan/STLcd/lcd_scan.c.obj
                0x0000000000009026                lcdTestCLIDict_DescEntry
 .rodata.lcdColorCLIDict_DescEntry
                0x0000000000009040       0x45 CMakeFiles/kiibohd.elf.dir/Scan/STLcd/lcd_scan.c.obj
                0x0000000000009040                lcdColorCLIDict_DescEntry
 .rodata.lcdCLIDictName
                0x0000000000009085       0x17 CMakeFiles/kiibohd.elf.dir/Scan/STLcd/lcd_scan.c.obj
                0x0000000000009085                lcdCLIDictName
 .rodata.lcdCLIDict
                0x000000000000909c       0x48 CMakeFiles/kiibohd.elf.dir/Scan/STLcd/lcd_scan.c.obj
                0x000000000000909c                lcdCLIDict
 .rodata.str1.1
                0x00000000000090e4       0xdf CMakeFiles/kiibohd.elf.dir/Scan/STLcd/lcd_scan.c.obj
                                         0xe2 (size before relaxing)
 .rodata.lcdCmdCLIDict_DescEntry
                0x00000000000091c3       0x44 CMakeFiles/kiibohd.elf.dir/Scan/STLcd/lcd_scan.c.obj
                0x00000000000091c3                lcdCmdCLIDict_DescEntry
 .rodata.STLcdDefaultImage
                0x0000000000009207      0x200 CMakeFiles/kiibohd.elf.dir/Scan/STLcd/lcd_scan.c.obj
                0x0000000000009207                STLcdDefaultImage
 .rodata.lcdInitCLIDict_DescEntry
                0x0000000000009407       0x1f CMakeFiles/kiibohd.elf.dir/Scan/STLcd/lcd_scan.c.obj
                0x0000000000009407                lcdInitCLIDict_DescEntry
 .rodata.lcdDispCLIDict_DescEntry
                0x0000000000009426       0x4e CMakeFiles/kiibohd.elf.dir/Scan/STLcd/lcd_scan.c.obj
                0x0000000000009426                lcdDispCLIDict_DescEntry
 .rodata        0x0000000000009474       0x2f CMakeFiles/kiibohd.elf.dir/Scan/UARTConnect/connect_scan.c.obj
 *fill*         0x00000000000094a3        0x1 
 .rodata.uartConnectCLIDict
                0x00000000000094a4       0x60 CMakeFiles/kiibohd.elf.dir/Scan/UARTConnect/connect_scan.c.obj
                0x00000000000094a4                uartConnectCLIDict
 .rodata.connectDbgCLIDict_DescEntry
                0x0000000000009504       0x1f CMakeFiles/kiibohd.elf.dir/Scan/UARTConnect/connect_scan.c.obj
                0x0000000000009504                connectDbgCLIDict_DescEntry
 .rodata.connectStsCLIDict_DescEntry
                0x0000000000009523       0x14 CMakeFiles/kiibohd.elf.dir/Scan/UARTConnect/connect_scan.c.obj
                0x0000000000009523                connectStsCLIDict_DescEntry
 .rodata.str1.1
                0x0000000000009537      0x5a6 CMakeFiles/kiibohd.elf.dir/Scan/UARTConnect/connect_scan.c.obj
                                        0x5af (size before relaxing)
 .rodata.connectLstCLIDict_DescEntry
                0x0000000000009add       0x32 CMakeFiles/kiibohd.elf.dir/Scan/UARTConnect/connect_scan.c.obj
                0x0000000000009add                connectLstCLIDict_DescEntry
 .rodata.uartConnectCLIDictName
                0x0000000000009b0f       0x1c CMakeFiles/kiibohd.elf.dir/Scan/UARTConnect/connect_scan.c.obj
                0x0000000000009b0f                uartConnectCLIDictName
 .rodata.connectMstCLIDict_DescEntry
                0x0000000000009b2b       0x3e CMakeFiles/kiibohd.elf.dir/Scan/UARTConnect/connect_scan.c.obj
                0x0000000000009b2b                connectMstCLIDict_DescEntry
 .rodata.connectCmdCLIDict_DescEntry
                0x0000000000009b69       0x6c CMakeFiles/kiibohd.elf.dir/Scan/UARTConnect/connect_scan.c.obj
                0x0000000000009b69                connectCmdCLIDict_DescEntry
 .rodata.connectRstCLIDict_DescEntry
                0x0000000000009bd5       0x3b CMakeFiles/kiibohd.elf.dir/Scan/UARTConnect/connect_scan.c.obj
                0x0000000000009bd5                connectRstCLIDict_DescEntry
 .rodata.connectIdlCLIDict_DescEntry
                0x0000000000009c10       0x61 CMakeFiles/kiibohd.elf.dir/Scan/UARTConnect/connect_scan.c.obj
                0x0000000000009c10                connectIdlCLIDict_DescEntry
 *fill*         0x0000000000009c71        0x3 
 .rodata.default_tl_0x2B
                0x0000000000009c74        0x8 CMakeFiles/kiibohd.elf.dir/Macro/PartialMap/macro.c.obj
                0x0000000000009c74                default_tl_0x2B
 .rodata.default_tl_0x2C
                0x0000000000009c7c        0x8 CMakeFiles/kiibohd.elf.dir/Macro/PartialMap/macro.c.obj
                0x0000000000009c7c                default_tl_0x2C
 .rodata.default_tl_0x2D
                0x0000000000009c84        0x4 CMakeFiles/kiibohd.elf.dir/Macro/PartialMap/macro.c.obj
                0x0000000000009c84                default_tl_0x2D
 .rodata.default_tl_0x2E
                0x0000000000009c88        0x4 CMakeFiles/kiibohd.elf.dir/Macro/PartialMap/macro.c.obj
                0x0000000000009c88                default_tl_0x2E
 .rodata.default_tl_0x2F
                0x0000000000009c8c        0x8 CMakeFiles/kiibohd.elf.dir/Macro/PartialMap/macro.c.obj
                0x0000000000009c8c                default_tl_0x2F
 .rodata.tm11_guide
                0x0000000000009c94        0x5 CMakeFiles/kiibohd.elf.dir/Macro/PartialMap/macro.c.obj
                0x0000000000009c94                tm11_guide
 .rodata.rm40_guide
                0x0000000000009c99        0x4 CMakeFiles/kiibohd.elf.dir/Macro/PartialMap/macro.c.obj
                0x0000000000009c99                rm40_guide
 .rodata.rm92_guide
                0x0000000000009c9d        0x5 CMakeFiles/kiibohd.elf.dir/Macro/PartialMap/macro.c.obj
                0x0000000000009c9d                rm92_guide
 *fill*         0x0000000000009ca2        0x2 
 .rodata.default_tl_0x41
                0x0000000000009ca4        0x4 CMakeFiles/kiibohd.elf.dir/Macro/PartialMap/macro.c.obj
                0x0000000000009ca4                default_tl_0x41
 .rodata.rm64_guide
                0x0000000000009ca8        0x4 CMakeFiles/kiibohd.elf.dir/Macro/PartialMap/macro.c.obj
                0x0000000000009ca8                rm64_guide
 .rodata.default_tl_0x43
                0x0000000000009cac        0x8 CMakeFiles/kiibohd.elf.dir/Macro/PartialMap/macro.c.obj
                0x0000000000009cac                default_tl_0x43
 .rodata.rm36_guide
                0x0000000000009cb4        0x4 CMakeFiles/kiibohd.elf.dir/Macro/PartialMap/macro.c.obj
                0x0000000000009cb4                rm36_guide
 .rodata.default_tl_0x44
                0x0000000000009cb8        0x8 CMakeFiles/kiibohd.elf.dir/Macro/PartialMap/macro.c.obj
                0x0000000000009cb8                default_tl_0x44
 .rodata.default_tl_0x45
                0x0000000000009cc0        0x8 CMakeFiles/kiibohd.elf.dir/Macro/PartialMap/macro.c.obj
                0x0000000000009cc0                default_tl_0x45
 .rodata.default_tl_0x46
                0x0000000000009cc8        0x8 CMakeFiles/kiibohd.elf.dir/Macro/PartialMap/macro.c.obj
                0x0000000000009cc8                default_tl_0x46
 .rodata.default_tl_0x47
                0x0000000000009cd0        0x8 CMakeFiles/kiibohd.elf.dir/Macro/PartialMap/macro.c.obj
                0x0000000000009cd0                default_tl_0x47
 .rodata.macroCLIDictName
                0x0000000000009cd8       0x16 CMakeFiles/kiibohd.elf.dir/Macro/PartialMap/macro.c.obj
                0x0000000000009cd8                macroCLIDictName
 .rodata.tm41_guide
                0x0000000000009cee        0x5 CMakeFiles/kiibohd.elf.dir/Macro/PartialMap/macro.c.obj
                0x0000000000009cee                tm41_guide
 .rodata.tm93_guide
                0x0000000000009cf3        0x5 CMakeFiles/kiibohd.elf.dir/Macro/PartialMap/macro.c.obj
                0x0000000000009cf3                tm93_guide
 .rodata.keyReleaseCLIDict_DescEntry
                0x0000000000009cf8       0x6b CMakeFiles/kiibohd.elf.dir/Macro/PartialMap/macro.c.obj
                0x0000000000009cf8                keyReleaseCLIDict_DescEntry
 .rodata.tm65_guide
                0x0000000000009d63        0x5 CMakeFiles/kiibohd.elf.dir/Macro/PartialMap/macro.c.obj
                0x0000000000009d63                tm65_guide
 .rodata.tm2_guide
                0x0000000000009d68        0x5 CMakeFiles/kiibohd.elf.dir/Macro/PartialMap/macro.c.obj
                0x0000000000009d68                tm2_guide
 .rodata.tm37_guide
                0x0000000000009d6d        0x5 CMakeFiles/kiibohd.elf.dir/Macro/PartialMap/macro.c.obj
                0x0000000000009d6d                tm37_guide
 *fill*         0x0000000000009d72        0x2 
 .rodata.default_tl_0x30
                0x0000000000009d74        0x8 CMakeFiles/kiibohd.elf.dir/Macro/PartialMap/macro.c.obj
                0x0000000000009d74                default_tl_0x30
 .rodata.default_tl_0x31
                0x0000000000009d7c        0x8 CMakeFiles/kiibohd.elf.dir/Macro/PartialMap/macro.c.obj
                0x0000000000009d7c                default_tl_0x31
 .rodata.default_tl_0x32
                0x0000000000009d84        0x8 CMakeFiles/kiibohd.elf.dir/Macro/PartialMap/macro.c.obj
                0x0000000000009d84                default_tl_0x32
 .rodata.default_tl_0x33
                0x0000000000009d8c        0x8 CMakeFiles/kiibohd.elf.dir/Macro/PartialMap/macro.c.obj
                0x0000000000009d8c                default_tl_0x33
 .rodata.default_tl_0x34
                0x0000000000009d94        0x8 CMakeFiles/kiibohd.elf.dir/Macro/PartialMap/macro.c.obj
                0x0000000000009d94                default_tl_0x34
 .rodata.default_tl_0x35
                0x0000000000009d9c        0x8 CMakeFiles/kiibohd.elf.dir/Macro/PartialMap/macro.c.obj
                0x0000000000009d9c                default_tl_0x35
 .rodata.default_tl_0x36
                0x0000000000009da4        0x4 CMakeFiles/kiibohd.elf.dir/Macro/PartialMap/macro.c.obj
                0x0000000000009da4                default_tl_0x36
 .rodata.default_tl_0x37
                0x0000000000009da8        0x4 CMakeFiles/kiibohd.elf.dir/Macro/PartialMap/macro.c.obj
                0x0000000000009da8                default_tl_0x37
 .rodata.default_tl_0x38
                0x0000000000009dac        0x8 CMakeFiles/kiibohd.elf.dir/Macro/PartialMap/macro.c.obj
                0x0000000000009dac                default_tl_0x38
 .rodata.default_tl_0x39
                0x0000000000009db4        0x8 CMakeFiles/kiibohd.elf.dir/Macro/PartialMap/macro.c.obj
                0x0000000000009db4                default_tl_0x39
 .rodata.default_tl_0x4E
                0x0000000000009dbc        0x8 CMakeFiles/kiibohd.elf.dir/Macro/PartialMap/macro.c.obj
                0x0000000000009dbc                default_tl_0x4E
 .rodata.default_tl_0x3A
                0x0000000000009dc4        0x8 CMakeFiles/kiibohd.elf.dir/Macro/PartialMap/macro.c.obj
                0x0000000000009dc4                default_tl_0x3A
 .rodata.default_tl_0x3B
                0x0000000000009dcc        0x8 CMakeFiles/kiibohd.elf.dir/Macro/PartialMap/macro.c.obj
                0x0000000000009dcc                default_tl_0x3B
 .rodata.default_tl_0x3C
                0x0000000000009dd4        0x8 CMakeFiles/kiibohd.elf.dir/Macro/PartialMap/macro.c.obj
                0x0000000000009dd4                default_tl_0x3C
 .rodata.default_tl_0x3D
                0x0000000000009ddc        0x8 CMakeFiles/kiibohd.elf.dir/Macro/PartialMap/macro.c.obj
                0x0000000000009ddc                default_tl_0x3D
 .rodata.default_tl_0x3E
                0x0000000000009de4        0x8 CMakeFiles/kiibohd.elf.dir/Macro/PartialMap/macro.c.obj
                0x0000000000009de4                default_tl_0x3E
 .rodata.default_tl_0x3F
                0x0000000000009dec        0x4 CMakeFiles/kiibohd.elf.dir/Macro/PartialMap/macro.c.obj
                0x0000000000009dec                default_tl_0x3F
 .rodata.rm81_guide
                0x0000000000009df0        0x4 CMakeFiles/kiibohd.elf.dir/Macro/PartialMap/macro.c.obj
                0x0000000000009df0                rm81_guide
 .rodata.macroStepCLIDict_DescEntry
                0x0000000000009df4       0x2c CMakeFiles/kiibohd.elf.dir/Macro/PartialMap/macro.c.obj
                0x0000000000009df4                macroStepCLIDict_DescEntry
 .rodata.rm53_guide
                0x0000000000009e20        0x4 CMakeFiles/kiibohd.elf.dir/Macro/PartialMap/macro.c.obj
                0x0000000000009e20                rm53_guide
 .rodata.rm25_guide
                0x0000000000009e24        0x4 CMakeFiles/kiibohd.elf.dir/Macro/PartialMap/macro.c.obj
                0x0000000000009e24                rm25_guide
 .rodata.tm3_guide
                0x0000000000009e28        0x5 CMakeFiles/kiibohd.elf.dir/Macro/PartialMap/macro.c.obj
                0x0000000000009e28                tm3_guide
 .rodata.rm21_guide
                0x0000000000009e2d        0x4 CMakeFiles/kiibohd.elf.dir/Macro/PartialMap/macro.c.obj
                0x0000000000009e2d                rm21_guide
 .rodata.capSelectCLIDict_DescEntry
                0x0000000000009e31       0x76 CMakeFiles/kiibohd.elf.dir/Macro/PartialMap/macro.c.obj
                0x0000000000009e31                capSelectCLIDict_DescEntry
 .rodata.rm77_guide
                0x0000000000009ea7        0x4 CMakeFiles/kiibohd.elf.dir/Macro/PartialMap/macro.c.obj
                0x0000000000009ea7                rm77_guide
 .rodata.InterconnectOffsetList
                0x0000000000009eab        0x2 CMakeFiles/kiibohd.elf.dir/Macro/PartialMap/macro.c.obj
                0x0000000000009eab                InterconnectOffsetList
 .rodata.tm76_guide
                0x0000000000009ead        0x5 CMakeFiles/kiibohd.elf.dir/Macro/PartialMap/macro.c.obj
                0x0000000000009ead                tm76_guide
 .rodata.rm49_guide
                0x0000000000009eb2        0x4 CMakeFiles/kiibohd.elf.dir/Macro/PartialMap/macro.c.obj
                0x0000000000009eb2                rm49_guide
 *fill*         0x0000000000009eb6        0x2 
 .rodata.layer1_tl_0x02
                0x0000000000009eb8        0x8 CMakeFiles/kiibohd.elf.dir/Macro/PartialMap/macro.c.obj
                0x0000000000009eb8                layer1_tl_0x02
 .rodata.layer1_tl_0x03
                0x0000000000009ec0        0x8 CMakeFiles/kiibohd.elf.dir/Macro/PartialMap/macro.c.obj
                0x0000000000009ec0                layer1_tl_0x03
 .rodata.layer1_tl_0x04
                0x0000000000009ec8        0x8 CMakeFiles/kiibohd.elf.dir/Macro/PartialMap/macro.c.obj
                0x0000000000009ec8                layer1_tl_0x04
 .rodata.layer1_tl_0x05
                0x0000000000009ed0        0x8 CMakeFiles/kiibohd.elf.dir/Macro/PartialMap/macro.c.obj
                0x0000000000009ed0                layer1_tl_0x05
 .rodata.layer1_tl_0x06
                0x0000000000009ed8        0x8 CMakeFiles/kiibohd.elf.dir/Macro/PartialMap/macro.c.obj
                0x0000000000009ed8                layer1_tl_0x06
 .rodata.layer1_tl_0x07
                0x0000000000009ee0        0x8 CMakeFiles/kiibohd.elf.dir/Macro/PartialMap/macro.c.obj
                0x0000000000009ee0                layer1_tl_0x07
 .rodata.layer1_tl_0x08
                0x0000000000009ee8        0x4 CMakeFiles/kiibohd.elf.dir/Macro/PartialMap/macro.c.obj
                0x0000000000009ee8                layer1_tl_0x08
 .rodata.layer1_tl_0x09
                0x0000000000009eec        0x4 CMakeFiles/kiibohd.elf.dir/Macro/PartialMap/macro.c.obj
                0x0000000000009eec                layer1_tl_0x09
 .rodata.tm78_guide
                0x0000000000009ef0        0x5 CMakeFiles/kiibohd.elf.dir/Macro/PartialMap/macro.c.obj
                0x0000000000009ef0                tm78_guide
 *fill*         0x0000000000009ef5        0x3 
 .rodata.macroCLIDict
                0x0000000000009ef8       0xa8 CMakeFiles/kiibohd.elf.dir/Macro/PartialMap/macro.c.obj
                0x0000000000009ef8                macroCLIDict
 .rodata.default_tl_0x40
                0x0000000000009fa0        0x4 CMakeFiles/kiibohd.elf.dir/Macro/PartialMap/macro.c.obj
                0x0000000000009fa0                default_tl_0x40
 .rodata.rm79_guide
                0x0000000000009fa4        0x4 CMakeFiles/kiibohd.elf.dir/Macro/PartialMap/macro.c.obj
                0x0000000000009fa4                rm79_guide
 .rodata.layer1_tl_0x0A
                0x0000000000009fa8        0x4 CMakeFiles/kiibohd.elf.dir/Macro/PartialMap/macro.c.obj
                0x0000000000009fa8                layer1_tl_0x0A
 .rodata.layer1_tl_0x0B
                0x0000000000009fac        0x4 CMakeFiles/kiibohd.elf.dir/Macro/PartialMap/macro.c.obj
                0x0000000000009fac                layer1_tl_0x0B
 .rodata.layer1_tl_0x0C
                0x0000000000009fb0        0x4 CMakeFiles/kiibohd.elf.dir/Macro/PartialMap/macro.c.obj
                0x0000000000009fb0                layer1_tl_0x0C
 .rodata.layer1_tl_0x0D
                0x0000000000009fb4        0x4 CMakeFiles/kiibohd.elf.dir/Macro/PartialMap/macro.c.obj
                0x0000000000009fb4                layer1_tl_0x0D
 .rodata.layer1_tl_0x0E
                0x0000000000009fb8        0x4 CMakeFiles/kiibohd.elf.dir/Macro/PartialMap/macro.c.obj
                0x0000000000009fb8                layer1_tl_0x0E
 .rodata.layer1_tl_0x0F
                0x0000000000009fbc        0x4 CMakeFiles/kiibohd.elf.dir/Macro/PartialMap/macro.c.obj
                0x0000000000009fbc                layer1_tl_0x0F
 .rodata.default_tl_0x48
                0x0000000000009fc0        0x8 CMakeFiles/kiibohd.elf.dir/Macro/PartialMap/macro.c.obj
                0x0000000000009fc0                default_tl_0x48
 .rodata.default_tl_0x49
                0x0000000000009fc8        0x8 CMakeFiles/kiibohd.elf.dir/Macro/PartialMap/macro.c.obj
                0x0000000000009fc8                default_tl_0x49
 .rodata.default_tl_0x57
                0x0000000000009fd0        0x8 CMakeFiles/kiibohd.elf.dir/Macro/PartialMap/macro.c.obj
                0x0000000000009fd0                default_tl_0x57
 .rodata.rm12_guide
                0x0000000000009fd8        0x4 CMakeFiles/kiibohd.elf.dir/Macro/PartialMap/macro.c.obj
                0x0000000000009fd8                rm12_guide
 .rodata.default_tl_0x4A
                0x0000000000009fdc        0x8 CMakeFiles/kiibohd.elf.dir/Macro/PartialMap/macro.c.obj
                0x0000000000009fdc                default_tl_0x4A
 .rodata.default_tl_0x4B
                0x0000000000009fe4        0x8 CMakeFiles/kiibohd.elf.dir/Macro/PartialMap/macro.c.obj
                0x0000000000009fe4                default_tl_0x4B
 .rodata.default_tl_0x4C
                0x0000000000009fec        0x8 CMakeFiles/kiibohd.elf.dir/Macro/PartialMap/macro.c.obj
                0x0000000000009fec                default_tl_0x4C
 .rodata.default_tl_0x4D
                0x0000000000009ff4        0x8 CMakeFiles/kiibohd.elf.dir/Macro/PartialMap/macro.c.obj
                0x0000000000009ff4                default_tl_0x4D
 .rodata.default_tl_0x4F
                0x0000000000009ffc        0x8 CMakeFiles/kiibohd.elf.dir/Macro/PartialMap/macro.c.obj
                0x0000000000009ffc                default_tl_0x4F
 .rodata.default_tl_0x55
                0x000000000000a004        0x8 CMakeFiles/kiibohd.elf.dir/Macro/PartialMap/macro.c.obj
                0x000000000000a004                default_tl_0x55
 .rodata.rm70_guide
                0x000000000000a00c        0x4 CMakeFiles/kiibohd.elf.dir/Macro/PartialMap/macro.c.obj
                0x000000000000a00c                rm70_guide
 .rodata.tm13_guide
                0x000000000000a010        0x5 CMakeFiles/kiibohd.elf.dir/Macro/PartialMap/macro.c.obj
                0x000000000000a010                tm13_guide
 .rodata.rm42_guide
                0x000000000000a015        0x4 CMakeFiles/kiibohd.elf.dir/Macro/PartialMap/macro.c.obj
                0x000000000000a015                rm42_guide
 .rodata.rm46_guide
                0x000000000000a019        0x4 CMakeFiles/kiibohd.elf.dir/Macro/PartialMap/macro.c.obj
                0x000000000000a019                rm46_guide
 *fill*         0x000000000000a01d        0x3 
 .rodata.ResultMacroList
                0x000000000000a020      0x174 CMakeFiles/kiibohd.elf.dir/Macro/PartialMap/macro.c.obj
                0x000000000000a020                ResultMacroList
 .rodata.rm66_guide
                0x000000000000a194        0x8 CMakeFiles/kiibohd.elf.dir/Macro/PartialMap/macro.c.obj
                0x000000000000a194                rm66_guide
 .rodata.default_tl_0x52
                0x000000000000a19c        0x8 CMakeFiles/kiibohd.elf.dir/Macro/PartialMap/macro.c.obj
                0x000000000000a19c                default_tl_0x52
 .rodata.default_tl_0x53
                0x000000000000a1a4        0x8 CMakeFiles/kiibohd.elf.dir/Macro/PartialMap/macro.c.obj
                0x000000000000a1a4                default_tl_0x53
 .rodata.default_tl_0x54
                0x000000000000a1ac        0x8 CMakeFiles/kiibohd.elf.dir/Macro/PartialMap/macro.c.obj
                0x000000000000a1ac                default_tl_0x54
 .rodata.tm71_guide
                0x000000000000a1b4        0x5 CMakeFiles/kiibohd.elf.dir/Macro/PartialMap/macro.c.obj
                0x000000000000a1b4                tm71_guide
 .rodata.rm5_guide
                0x000000000000a1b9        0x4 CMakeFiles/kiibohd.elf.dir/Macro/PartialMap/macro.c.obj
                0x000000000000a1b9                rm5_guide
 *fill*         0x000000000000a1bd        0x3 
 .rodata.default_tl_0x56
                0x000000000000a1c0        0x8 CMakeFiles/kiibohd.elf.dir/Macro/PartialMap/macro.c.obj
                0x000000000000a1c0                default_tl_0x56
 .rodata.tm43_guide
                0x000000000000a1c8        0x5 CMakeFiles/kiibohd.elf.dir/Macro/PartialMap/macro.c.obj
                0x000000000000a1c8                tm43_guide
 *fill*         0x000000000000a1cd        0x3 
 .rodata.layer1_tl_0x11
                0x000000000000a1d0        0x4 CMakeFiles/kiibohd.elf.dir/Macro/PartialMap/macro.c.obj
                0x000000000000a1d0                layer1_tl_0x11
 .rodata.layer1_tl_0x12
                0x000000000000a1d4        0x4 CMakeFiles/kiibohd.elf.dir/Macro/PartialMap/macro.c.obj
                0x000000000000a1d4                layer1_tl_0x12
 .rodata.layer1_tl_0x13
                0x000000000000a1d8        0x4 CMakeFiles/kiibohd.elf.dir/Macro/PartialMap/macro.c.obj
                0x000000000000a1d8                layer1_tl_0x13
 .rodata.layer1_tl_0x14
                0x000000000000a1dc        0x4 CMakeFiles/kiibohd.elf.dir/Macro/PartialMap/macro.c.obj
                0x000000000000a1dc                layer1_tl_0x14
 .rodata.layer1_tl_0x15
                0x000000000000a1e0        0x4 CMakeFiles/kiibohd.elf.dir/Macro/PartialMap/macro.c.obj
                0x000000000000a1e0                layer1_tl_0x15
 .rodata.layer1_tl_0x16
                0x000000000000a1e4        0x4 CMakeFiles/kiibohd.elf.dir/Macro/PartialMap/macro.c.obj
                0x000000000000a1e4                layer1_tl_0x16
 .rodata.layer1_tl_0x17
                0x000000000000a1e8        0x4 CMakeFiles/kiibohd.elf.dir/Macro/PartialMap/macro.c.obj
                0x000000000000a1e8                layer1_tl_0x17
 .rodata.tm4_guide
                0x000000000000a1ec        0x5 CMakeFiles/kiibohd.elf.dir/Macro/PartialMap/macro.c.obj
                0x000000000000a1ec                tm4_guide
 *fill*         0x000000000000a1f1        0x3 
 .rodata.layer1_tl_0x19
                0x000000000000a1f4        0x4 CMakeFiles/kiibohd.elf.dir/Macro/PartialMap/macro.c.obj
                0x000000000000a1f4                layer1_tl_0x19
 .rodata.tm39_guide
                0x000000000000a1f8        0x5 CMakeFiles/kiibohd.elf.dir/Macro/PartialMap/macro.c.obj
                0x000000000000a1f8                tm39_guide
 *fill*         0x000000000000a1fd        0x3 
 .rodata.default_tl_0x50
                0x000000000000a200        0x8 CMakeFiles/kiibohd.elf.dir/Macro/PartialMap/macro.c.obj
                0x000000000000a200                default_tl_0x50
 .rodata.default_tl_0x51
                0x000000000000a208        0x8 CMakeFiles/kiibohd.elf.dir/Macro/PartialMap/macro.c.obj
                0x000000000000a208                default_tl_0x51
 .rodata.layer1_tl_0x1A
                0x000000000000a210        0x4 CMakeFiles/kiibohd.elf.dir/Macro/PartialMap/macro.c.obj
                0x000000000000a210                layer1_tl_0x1A
 .rodata.layer1_tl_0x1B
                0x000000000000a214        0x4 CMakeFiles/kiibohd.elf.dir/Macro/PartialMap/macro.c.obj
                0x000000000000a214                layer1_tl_0x1B
 .rodata.layer1_tl_0x1C
                0x000000000000a218        0x4 CMakeFiles/kiibohd.elf.dir/Macro/PartialMap/macro.c.obj
                0x000000000000a218                layer1_tl_0x1C
 .rodata.layer1_tl_0x1D
                0x000000000000a21c        0x4 CMakeFiles/kiibohd.elf.dir/Macro/PartialMap/macro.c.obj
                0x000000000000a21c                layer1_tl_0x1D
 .rodata.layer1_tl_0x1E
                0x000000000000a220        0x4 CMakeFiles/kiibohd.elf.dir/Macro/PartialMap/macro.c.obj
                0x000000000000a220                layer1_tl_0x1E
 .rodata.layer1_tl_0x1F
                0x000000000000a224        0x4 CMakeFiles/kiibohd.elf.dir/Macro/PartialMap/macro.c.obj
                0x000000000000a224                layer1_tl_0x1F
 .rodata.default_tl_0x58
                0x000000000000a228        0x8 CMakeFiles/kiibohd.elf.dir/Macro/PartialMap/macro.c.obj
                0x000000000000a228                default_tl_0x58
 .rodata.default_tl_0x59
                0x000000000000a230        0x8 CMakeFiles/kiibohd.elf.dir/Macro/PartialMap/macro.c.obj
                0x000000000000a230                default_tl_0x59
 .rodata.tm18_guide
                0x000000000000a238        0x5 CMakeFiles/kiibohd.elf.dir/Macro/PartialMap/macro.c.obj
                0x000000000000a238                tm18_guide
 .rodata.tm30_guide
                0x000000000000a23d        0x5 CMakeFiles/kiibohd.elf.dir/Macro/PartialMap/macro.c.obj
                0x000000000000a23d                tm30_guide
 .rodata.rm31_guide
                0x000000000000a242        0x4 CMakeFiles/kiibohd.elf.dir/Macro/PartialMap/macro.c.obj
                0x000000000000a242                rm31_guide
 .rodata.rm83_guide
                0x000000000000a246        0x4 CMakeFiles/kiibohd.elf.dir/Macro/PartialMap/macro.c.obj
                0x000000000000a246                rm83_guide
 .rodata.rm55_guide
                0x000000000000a24a        0x4 CMakeFiles/kiibohd.elf.dir/Macro/PartialMap/macro.c.obj
                0x000000000000a24a                rm55_guide
 .rodata.rm27_guide
                0x000000000000a24e        0x4 CMakeFiles/kiibohd.elf.dir/Macro/PartialMap/macro.c.obj
                0x000000000000a24e                rm27_guide
 .rodata.tm60_guide
                0x000000000000a252        0x5 CMakeFiles/kiibohd.elf.dir/Macro/PartialMap/macro.c.obj
                0x000000000000a252                tm60_guide
 .rodata.tm84_guide
                0x000000000000a257        0x5 CMakeFiles/kiibohd.elf.dir/Macro/PartialMap/macro.c.obj
                0x000000000000a257                tm84_guide
 .rodata.layer1_tl_0x20
                0x000000000000a25c        0x4 CMakeFiles/kiibohd.elf.dir/Macro/PartialMap/macro.c.obj
                0x000000000000a25c                layer1_tl_0x20
 .rodata.layer1_tl_0x21
                0x000000000000a260        0x4 CMakeFiles/kiibohd.elf.dir/Macro/PartialMap/macro.c.obj
                0x000000000000a260                layer1_tl_0x21
 .rodata.tm56_guide
                0x000000000000a264        0x5 CMakeFiles/kiibohd.elf.dir/Macro/PartialMap/macro.c.obj
                0x000000000000a264                tm56_guide
 *fill*         0x000000000000a269        0x3 
 .rodata.layer1_tl_0x23
                0x000000000000a26c        0x4 CMakeFiles/kiibohd.elf.dir/Macro/PartialMap/macro.c.obj
                0x000000000000a26c                layer1_tl_0x23
 .rodata.layer1_tl_0x24
                0x000000000000a270        0x4 CMakeFiles/kiibohd.elf.dir/Macro/PartialMap/macro.c.obj
                0x000000000000a270                layer1_tl_0x24
 .rodata.tm28_guide
                0x000000000000a274        0x5 CMakeFiles/kiibohd.elf.dir/Macro/PartialMap/macro.c.obj
                0x000000000000a274                tm28_guide
 *fill*         0x000000000000a279        0x3 
 .rodata.layer1_tl_0x26
                0x000000000000a27c        0x4 CMakeFiles/kiibohd.elf.dir/Macro/PartialMap/macro.c.obj
                0x000000000000a27c                layer1_tl_0x26
 .rodata.layer1_tl_0x27
                0x000000000000a280        0x4 CMakeFiles/kiibohd.elf.dir/Macro/PartialMap/macro.c.obj
                0x000000000000a280                layer1_tl_0x27
 .rodata.layer1_tl_0x28
                0x000000000000a284        0x4 CMakeFiles/kiibohd.elf.dir/Macro/PartialMap/macro.c.obj
                0x000000000000a284                layer1_tl_0x28
 .rodata.layer1_tl_0x29
                0x000000000000a288        0x4 CMakeFiles/kiibohd.elf.dir/Macro/PartialMap/macro.c.obj
                0x000000000000a288                layer1_tl_0x29
 .rodata.layer1_tl_0x2A
                0x000000000000a28c        0x4 CMakeFiles/kiibohd.elf.dir/Macro/PartialMap/macro.c.obj
                0x000000000000a28c                layer1_tl_0x2A
 .rodata.layer1_tl_0x2B
                0x000000000000a290        0x4 CMakeFiles/kiibohd.elf.dir/Macro/PartialMap/macro.c.obj
                0x000000000000a290                layer1_tl_0x2B
 .rodata.layer1_tl_0x2C
                0x000000000000a294        0x4 CMakeFiles/kiibohd.elf.dir/Macro/PartialMap/macro.c.obj
                0x000000000000a294                layer1_tl_0x2C
 .rodata.layer1_tl_0x2D
                0x000000000000a298        0x4 CMakeFiles/kiibohd.elf.dir/Macro/PartialMap/macro.c.obj
                0x000000000000a298                layer1_tl_0x2D
 .rodata.layer1_tl_0x2E
                0x000000000000a29c        0x4 CMakeFiles/kiibohd.elf.dir/Macro/PartialMap/macro.c.obj
                0x000000000000a29c                layer1_tl_0x2E
 .rodata.layer1_tl_0x2F
                0x000000000000a2a0        0x8 CMakeFiles/kiibohd.elf.dir/Macro/PartialMap/macro.c.obj
                0x000000000000a2a0                layer1_tl_0x2F
 .rodata.CapabilitiesList
                0x000000000000a2a8       0x88 CMakeFiles/kiibohd.elf.dir/Macro/PartialMap/macro.c.obj
                0x000000000000a2a8                CapabilitiesList
 .rodata.keyPressCLIDict_DescEntry
                0x000000000000a330       0x6e CMakeFiles/kiibohd.elf.dir/Macro/PartialMap/macro.c.obj
                0x000000000000a330                keyPressCLIDict_DescEntry
 .rodata.rm72_guide
                0x000000000000a39e        0x4 CMakeFiles/kiibohd.elf.dir/Macro/PartialMap/macro.c.obj
                0x000000000000a39e                rm72_guide
 .rodata.tm15_guide
                0x000000000000a3a2        0x5 CMakeFiles/kiibohd.elf.dir/Macro/PartialMap/macro.c.obj
                0x000000000000a3a2                tm15_guide
 .rodata.rm44_guide
                0x000000000000a3a7        0x4 CMakeFiles/kiibohd.elf.dir/Macro/PartialMap/macro.c.obj
                0x000000000000a3a7                rm44_guide
 .rodata.rm16_guide
                0x000000000000a3ab        0x4 CMakeFiles/kiibohd.elf.dir/Macro/PartialMap/macro.c.obj
                0x000000000000a3ab                rm16_guide
 .rodata.rm68_guide
                0x000000000000a3af        0x4 CMakeFiles/kiibohd.elf.dir/Macro/PartialMap/macro.c.obj
                0x000000000000a3af                rm68_guide
 .rodata.tm73_guide
                0x000000000000a3b3        0x5 CMakeFiles/kiibohd.elf.dir/Macro/PartialMap/macro.c.obj
                0x000000000000a3b3                tm73_guide
 .rodata.rm7_guide
                0x000000000000a3b8        0x4 CMakeFiles/kiibohd.elf.dir/Macro/PartialMap/macro.c.obj
                0x000000000000a3b8                rm7_guide
 .rodata.tm45_guide
                0x000000000000a3bc        0x5 CMakeFiles/kiibohd.elf.dir/Macro/PartialMap/macro.c.obj
                0x000000000000a3bc                tm45_guide
 .rodata.tm17_guide
                0x000000000000a3c1        0x5 CMakeFiles/kiibohd.elf.dir/Macro/PartialMap/macro.c.obj
                0x000000000000a3c1                tm17_guide
 *fill*         0x000000000000a3c6        0x2 
 .rodata.layer1_tl_0x31
                0x000000000000a3c8        0x8 CMakeFiles/kiibohd.elf.dir/Macro/PartialMap/macro.c.obj
                0x000000000000a3c8                layer1_tl_0x31
 .rodata.layer1_tl_0x32
                0x000000000000a3d0        0x8 CMakeFiles/kiibohd.elf.dir/Macro/PartialMap/macro.c.obj
                0x000000000000a3d0                layer1_tl_0x32
 .rodata.layer1_tl_0x33
                0x000000000000a3d8        0x8 CMakeFiles/kiibohd.elf.dir/Macro/PartialMap/macro.c.obj
                0x000000000000a3d8                layer1_tl_0x33
 .rodata.layer1_tl_0x34
                0x000000000000a3e0        0x8 CMakeFiles/kiibohd.elf.dir/Macro/PartialMap/macro.c.obj
                0x000000000000a3e0                layer1_tl_0x34
 .rodata.tm6_guide
                0x000000000000a3e8        0x5 CMakeFiles/kiibohd.elf.dir/Macro/PartialMap/macro.c.obj
                0x000000000000a3e8                tm6_guide
 .rodata.rm38_guide
                0x000000000000a3ed        0x6 CMakeFiles/kiibohd.elf.dir/Macro/PartialMap/macro.c.obj
                0x000000000000a3ed                rm38_guide
 .rodata.tm48_guide
                0x000000000000a3f3        0x5 CMakeFiles/kiibohd.elf.dir/Macro/PartialMap/macro.c.obj
                0x000000000000a3f3                tm48_guide
 .rodata.macroDebugCLIDict_DescEntry
                0x000000000000a3f8       0x51 CMakeFiles/kiibohd.elf.dir/Macro/PartialMap/macro.c.obj
                0x000000000000a3f8                macroDebugCLIDict_DescEntry
 .rodata.tm32_guide
                0x000000000000a449        0x5 CMakeFiles/kiibohd.elf.dir/Macro/PartialMap/macro.c.obj
                0x000000000000a449                tm32_guide
 .rodata.rm61_guide
                0x000000000000a44e        0x4 CMakeFiles/kiibohd.elf.dir/Macro/PartialMap/macro.c.obj
                0x000000000000a44e                rm61_guide
 .rodata.rm33_guide
                0x000000000000a452        0x6 CMakeFiles/kiibohd.elf.dir/Macro/PartialMap/macro.c.obj
                0x000000000000a452                rm33_guide
 .rodata.rm14_guide
                0x000000000000a458        0x4 CMakeFiles/kiibohd.elf.dir/Macro/PartialMap/macro.c.obj
                0x000000000000a458                rm14_guide
 .rodata.rm85_guide
                0x000000000000a45c        0x4 CMakeFiles/kiibohd.elf.dir/Macro/PartialMap/macro.c.obj
                0x000000000000a45c                rm85_guide
 .rodata.rm57_guide
                0x000000000000a460        0x4 CMakeFiles/kiibohd.elf.dir/Macro/PartialMap/macro.c.obj
                0x000000000000a460                rm57_guide
 .rodata.rm29_guide
                0x000000000000a464        0x6 CMakeFiles/kiibohd.elf.dir/Macro/PartialMap/macro.c.obj
                0x000000000000a464                rm29_guide
 *fill*         0x000000000000a46a        0x2 
 .rodata.layer1_tl_0x10
                0x000000000000a46c        0x4 CMakeFiles/kiibohd.elf.dir/Macro/PartialMap/macro.c.obj
                0x000000000000a46c                layer1_tl_0x10
 .rodata.tm90_guide
                0x000000000000a470        0x5 CMakeFiles/kiibohd.elf.dir/Macro/PartialMap/macro.c.obj
                0x000000000000a470                tm90_guide
 .rodata.tm62_guide
                0x000000000000a475        0x5 CMakeFiles/kiibohd.elf.dir/Macro/PartialMap/macro.c.obj
                0x000000000000a475                tm62_guide
 *fill*         0x000000000000a47a        0x2 
 .rodata.TriggerMacroList
                0x000000000000a47c      0x2f8 CMakeFiles/kiibohd.elf.dir/Macro/PartialMap/macro.c.obj
                0x000000000000a47c                TriggerMacroList
 .rodata.tm34_guide
                0x000000000000a774        0x5 CMakeFiles/kiibohd.elf.dir/Macro/PartialMap/macro.c.obj
                0x000000000000a774                tm34_guide
 .rodata.tm86_guide
                0x000000000000a779        0x5 CMakeFiles/kiibohd.elf.dir/Macro/PartialMap/macro.c.obj
                0x000000000000a779                tm86_guide
 .rodata.tm58_guide
                0x000000000000a77e        0x5 CMakeFiles/kiibohd.elf.dir/Macro/PartialMap/macro.c.obj
                0x000000000000a77e                tm58_guide
 .rodata.rm87_guide
                0x000000000000a783        0x5 CMakeFiles/kiibohd.elf.dir/Macro/PartialMap/macro.c.obj
                0x000000000000a783                rm87_guide
 .rodata.rm18_guide
                0x000000000000a788        0x4 CMakeFiles/kiibohd.elf.dir/Macro/PartialMap/macro.c.obj
                0x000000000000a788                rm18_guide
 .rodata.rm20_guide
                0x000000000000a78c        0x4 CMakeFiles/kiibohd.elf.dir/Macro/PartialMap/macro.c.obj
                0x000000000000a78c                rm20_guide
 .rodata.tm21_guide
                0x000000000000a790        0x5 CMakeFiles/kiibohd.elf.dir/Macro/PartialMap/macro.c.obj
                0x000000000000a790                tm21_guide
 .rodata.rm50_guide
                0x000000000000a795        0x4 CMakeFiles/kiibohd.elf.dir/Macro/PartialMap/macro.c.obj
                0x000000000000a795                rm50_guide
 *fill*         0x000000000000a799        0x3 
 .rodata.layer2_tl_0x08
                0x000000000000a79c        0x8 CMakeFiles/kiibohd.elf.dir/Macro/PartialMap/macro.c.obj
                0x000000000000a79c                layer2_tl_0x08
 .rodata.layer2_tl_0x09
                0x000000000000a7a4        0x4 CMakeFiles/kiibohd.elf.dir/Macro/PartialMap/macro.c.obj
                0x000000000000a7a4                layer2_tl_0x09
 .rodata.rm22_guide
                0x000000000000a7a8        0x5 CMakeFiles/kiibohd.elf.dir/Macro/PartialMap/macro.c.obj
                0x000000000000a7a8                rm22_guide
 .rodata.rm74_guide
                0x000000000000a7ad        0x4 CMakeFiles/kiibohd.elf.dir/Macro/PartialMap/macro.c.obj
                0x000000000000a7ad                rm74_guide
 *fill*         0x000000000000a7b1        0x3 
 .rodata.layer2_tl_0x0A
                0x000000000000a7b4        0x4 CMakeFiles/kiibohd.elf.dir/Macro/PartialMap/macro.c.obj
                0x000000000000a7b4                layer2_tl_0x0A
 .rodata.layer2_tl_0x0B
                0x000000000000a7b8        0x4 CMakeFiles/kiibohd.elf.dir/Macro/PartialMap/macro.c.obj
                0x000000000000a7b8                layer2_tl_0x0B
 .rodata.layer2_tl_0x0C
                0x000000000000a7bc        0x4 CMakeFiles/kiibohd.elf.dir/Macro/PartialMap/macro.c.obj
                0x000000000000a7bc                layer2_tl_0x0C
 .rodata.layer2_tl_0x0D
                0x000000000000a7c0        0x4 CMakeFiles/kiibohd.elf.dir/Macro/PartialMap/macro.c.obj
                0x000000000000a7c0                layer2_tl_0x0D
 .rodata.layer2_tl_0x0E
                0x000000000000a7c4        0x4 CMakeFiles/kiibohd.elf.dir/Macro/PartialMap/macro.c.obj
                0x000000000000a7c4                layer2_tl_0x0E
 .rodata.layer2_tl_0x0F
                0x000000000000a7c8        0x4 CMakeFiles/kiibohd.elf.dir/Macro/PartialMap/macro.c.obj
                0x000000000000a7c8                layer2_tl_0x0F
 .rodata.tm0_guide
                0x000000000000a7cc        0x5 CMakeFiles/kiibohd.elf.dir/Macro/PartialMap/macro.c.obj
                0x000000000000a7cc                tm0_guide
 .rodata.tm51_guide
                0x000000000000a7d1        0x5 CMakeFiles/kiibohd.elf.dir/Macro/PartialMap/macro.c.obj
                0x000000000000a7d1                tm51_guide
 .rodata.tm75_guide
                0x000000000000a7d6        0x5 CMakeFiles/kiibohd.elf.dir/Macro/PartialMap/macro.c.obj
                0x000000000000a7d6                tm75_guide
 .rodata.rm9_guide
                0x000000000000a7db        0x4 CMakeFiles/kiibohd.elf.dir/Macro/PartialMap/macro.c.obj
                0x000000000000a7db                rm9_guide
 .rodata.tm67_guide
                0x000000000000a7df        0x5 CMakeFiles/kiibohd.elf.dir/Macro/PartialMap/macro.c.obj
                0x000000000000a7df                tm67_guide
 .rodata.tm47_guide
                0x000000000000a7e4        0x5 CMakeFiles/kiibohd.elf.dir/Macro/PartialMap/macro.c.obj
                0x000000000000a7e4                tm47_guide
 .rodata.tm19_guide
                0x000000000000a7e9        0x5 CMakeFiles/kiibohd.elf.dir/Macro/PartialMap/macro.c.obj
                0x000000000000a7e9                tm19_guide
 .rodata.tm8_guide
                0x000000000000a7ee        0x5 CMakeFiles/kiibohd.elf.dir/Macro/PartialMap/macro.c.obj
                0x000000000000a7ee                tm8_guide
 *fill*         0x000000000000a7f3        0x1 
 .rodata.layer2_tl_0x10
                0x000000000000a7f4        0x4 CMakeFiles/kiibohd.elf.dir/Macro/PartialMap/macro.c.obj
                0x000000000000a7f4                layer2_tl_0x10
 .rodata.tm10_guide
                0x000000000000a7f8        0x5 CMakeFiles/kiibohd.elf.dir/Macro/PartialMap/macro.c.obj
                0x000000000000a7f8                tm10_guide
 *fill*         0x000000000000a7fd        0x3 
 .rodata.layer2_tl_0x12
                0x000000000000a800        0x4 CMakeFiles/kiibohd.elf.dir/Macro/PartialMap/macro.c.obj
                0x000000000000a800                layer2_tl_0x12
 .rodata.layer2_tl_0x13
                0x000000000000a804        0x4 CMakeFiles/kiibohd.elf.dir/Macro/PartialMap/macro.c.obj
                0x000000000000a804                layer2_tl_0x13
 .rodata.layer2_tl_0x14
                0x000000000000a808        0x4 CMakeFiles/kiibohd.elf.dir/Macro/PartialMap/macro.c.obj
                0x000000000000a808                layer2_tl_0x14
 .rodata.layer2_tl_0x15
                0x000000000000a80c        0x4 CMakeFiles/kiibohd.elf.dir/Macro/PartialMap/macro.c.obj
                0x000000000000a80c                layer2_tl_0x15
 .rodata.rm91_guide
                0x000000000000a810        0x5 CMakeFiles/kiibohd.elf.dir/Macro/PartialMap/macro.c.obj
                0x000000000000a810                rm91_guide
 *fill*         0x000000000000a815        0x3 
 .rodata.layer2_tl_0x17
                0x000000000000a818        0x4 CMakeFiles/kiibohd.elf.dir/Macro/PartialMap/macro.c.obj
                0x000000000000a818                layer2_tl_0x17
 .rodata.layer2_tl_0x18
                0x000000000000a81c        0x4 CMakeFiles/kiibohd.elf.dir/Macro/PartialMap/macro.c.obj
                0x000000000000a81c                layer2_tl_0x18
 .rodata.rm63_guide
                0x000000000000a820        0x4 CMakeFiles/kiibohd.elf.dir/Macro/PartialMap/macro.c.obj
                0x000000000000a820                rm63_guide
 .rodata.layer2_tl_0x11
                0x000000000000a824        0x4 CMakeFiles/kiibohd.elf.dir/Macro/PartialMap/macro.c.obj
                0x000000000000a824                layer2_tl_0x11
 .rodata.rm35_guide
                0x000000000000a828        0x4 CMakeFiles/kiibohd.elf.dir/Macro/PartialMap/macro.c.obj
                0x000000000000a828                rm35_guide
 .rodata.keyHoldCLIDict_DescEntry
                0x000000000000a82c       0x6d CMakeFiles/kiibohd.elf.dir/Macro/PartialMap/macro.c.obj
                0x000000000000a82c                keyHoldCLIDict_DescEntry
 *fill*         0x000000000000a899        0x3 
 .rodata.layer2_tl_0x16
                0x000000000000a89c        0x4 CMakeFiles/kiibohd.elf.dir/Macro/PartialMap/macro.c.obj
                0x000000000000a89c                layer2_tl_0x16
 .rodata.layer2_tl_0x1A
                0x000000000000a8a0        0x4 CMakeFiles/kiibohd.elf.dir/Macro/PartialMap/macro.c.obj
                0x000000000000a8a0                layer2_tl_0x1A
 .rodata.layer2_tl_0x1B
                0x000000000000a8a4        0x4 CMakeFiles/kiibohd.elf.dir/Macro/PartialMap/macro.c.obj
                0x000000000000a8a4                layer2_tl_0x1B
 .rodata.layer2_tl_0x1C
                0x000000000000a8a8        0x4 CMakeFiles/kiibohd.elf.dir/Macro/PartialMap/macro.c.obj
                0x000000000000a8a8                layer2_tl_0x1C
 .rodata.layer2_tl_0x1D
                0x000000000000a8ac        0x4 CMakeFiles/kiibohd.elf.dir/Macro/PartialMap/macro.c.obj
                0x000000000000a8ac                layer2_tl_0x1D
 .rodata.tm55_guide
                0x000000000000a8b0        0x5 CMakeFiles/kiibohd.elf.dir/Macro/PartialMap/macro.c.obj
                0x000000000000a8b0                tm55_guide
 *fill*         0x000000000000a8b5        0x3 
 .rodata.layer2_tl_0x19
                0x000000000000a8b8        0x4 CMakeFiles/kiibohd.elf.dir/Macro/PartialMap/macro.c.obj
                0x000000000000a8b8                layer2_tl_0x19
 .rodata.layerDebugCLIDict_DescEntry
                0x000000000000a8bc       0x35 CMakeFiles/kiibohd.elf.dir/Macro/PartialMap/macro.c.obj
                0x000000000000a8bc                layerDebugCLIDict_DescEntry
 .rodata.tm92_guide
                0x000000000000a8f1        0x5 CMakeFiles/kiibohd.elf.dir/Macro/PartialMap/macro.c.obj
                0x000000000000a8f1                tm92_guide
 .rodata.tm64_guide
                0x000000000000a8f6        0x5 CMakeFiles/kiibohd.elf.dir/Macro/PartialMap/macro.c.obj
                0x000000000000a8f6                tm64_guide
 .rodata.tm1_guide
                0x000000000000a8fb        0x5 CMakeFiles/kiibohd.elf.dir/Macro/PartialMap/macro.c.obj
                0x000000000000a8fb                tm1_guide
 .rodata.layer1_tl_0x22
                0x000000000000a900        0x4 CMakeFiles/kiibohd.elf.dir/Macro/PartialMap/macro.c.obj
                0x000000000000a900                layer1_tl_0x22
 .rodata.tm36_guide
                0x000000000000a904        0x5 CMakeFiles/kiibohd.elf.dir/Macro/PartialMap/macro.c.obj
                0x000000000000a904                tm36_guide
 .rodata.tm88_guide
                0x000000000000a909        0x5 CMakeFiles/kiibohd.elf.dir/Macro/PartialMap/macro.c.obj
                0x000000000000a909                tm88_guide
 *fill*         0x000000000000a90e        0x2 
 .rodata.layer1_tl_0x25
                0x000000000000a910        0x4 CMakeFiles/kiibohd.elf.dir/Macro/PartialMap/macro.c.obj
                0x000000000000a910                layer1_tl_0x25
 .rodata.rm89_guide
                0x000000000000a914        0x5 CMakeFiles/kiibohd.elf.dir/Macro/PartialMap/macro.c.obj
                0x000000000000a914                rm89_guide
 .rodata.tm82_guide
                0x000000000000a919        0x5 CMakeFiles/kiibohd.elf.dir/Macro/PartialMap/macro.c.obj
                0x000000000000a919                tm82_guide
 *fill*         0x000000000000a91e        0x2 
 .rodata.layer2_tl_0x1E
                0x000000000000a920        0x4 CMakeFiles/kiibohd.elf.dir/Macro/PartialMap/macro.c.obj
                0x000000000000a920                layer2_tl_0x1E
 .rodata.layer2_tl_0x1F
                0x000000000000a924        0x4 CMakeFiles/kiibohd.elf.dir/Macro/PartialMap/macro.c.obj
                0x000000000000a924                layer2_tl_0x1F
 .rodata.tm59_guide
                0x000000000000a928        0x5 CMakeFiles/kiibohd.elf.dir/Macro/PartialMap/macro.c.obj
                0x000000000000a928                tm59_guide
 *fill*         0x000000000000a92d        0x3 
 .rodata.layer2_tl_0x20
                0x000000000000a930        0x4 CMakeFiles/kiibohd.elf.dir/Macro/PartialMap/macro.c.obj
                0x000000000000a930                layer2_tl_0x20
 .rodata.rm80_guide
                0x000000000000a934        0x4 CMakeFiles/kiibohd.elf.dir/Macro/PartialMap/macro.c.obj
                0x000000000000a934                rm80_guide
 .rodata.layer2_tl_0x22
                0x000000000000a938        0x4 CMakeFiles/kiibohd.elf.dir/Macro/PartialMap/macro.c.obj
                0x000000000000a938                layer2_tl_0x22
 .rodata.tm23_guide
                0x000000000000a93c        0x5 CMakeFiles/kiibohd.elf.dir/Macro/PartialMap/macro.c.obj
                0x000000000000a93c                tm23_guide
 .rodata.macroProcCLIDict_DescEntry
                0x000000000000a941       0x1f CMakeFiles/kiibohd.elf.dir/Macro/PartialMap/macro.c.obj
                0x000000000000a941                macroProcCLIDict_DescEntry
 .rodata.layer2_tl_0x25
                0x000000000000a960        0x4 CMakeFiles/kiibohd.elf.dir/Macro/PartialMap/macro.c.obj
                0x000000000000a960                layer2_tl_0x25
 .rodata.layer2_tl_0x26
                0x000000000000a964        0x4 CMakeFiles/kiibohd.elf.dir/Macro/PartialMap/macro.c.obj
                0x000000000000a964                layer2_tl_0x26
 .rodata.rm24_guide
                0x000000000000a968        0x4 CMakeFiles/kiibohd.elf.dir/Macro/PartialMap/macro.c.obj
                0x000000000000a968                rm24_guide
 .rodata.layer2_tl_0x28
                0x000000000000a96c        0x4 CMakeFiles/kiibohd.elf.dir/Macro/PartialMap/macro.c.obj
                0x000000000000a96c                layer2_tl_0x28
 .rodata.layer2_tl_0x29
                0x000000000000a970        0x4 CMakeFiles/kiibohd.elf.dir/Macro/PartialMap/macro.c.obj
                0x000000000000a970                layer2_tl_0x29
 .rodata.rm76_guide
                0x000000000000a974        0x4 CMakeFiles/kiibohd.elf.dir/Macro/PartialMap/macro.c.obj
                0x000000000000a974                rm76_guide
 .rodata.rm48_guide
                0x000000000000a978        0x4 CMakeFiles/kiibohd.elf.dir/Macro/PartialMap/macro.c.obj
                0x000000000000a978                rm48_guide
 .rodata.layer2_tl_0x2A
                0x000000000000a97c        0x4 CMakeFiles/kiibohd.elf.dir/Macro/PartialMap/macro.c.obj
                0x000000000000a97c                layer2_tl_0x2A
 .rodata.layer2_tl_0x2B
                0x000000000000a980        0x4 CMakeFiles/kiibohd.elf.dir/Macro/PartialMap/macro.c.obj
                0x000000000000a980                layer2_tl_0x2B
 .rodata.layer2_tl_0x2C
                0x000000000000a984        0x4 CMakeFiles/kiibohd.elf.dir/Macro/PartialMap/macro.c.obj
                0x000000000000a984                layer2_tl_0x2C
 .rodata.layer2_tl_0x2D
                0x000000000000a988        0x4 CMakeFiles/kiibohd.elf.dir/Macro/PartialMap/macro.c.obj
                0x000000000000a988                layer2_tl_0x2D
 .rodata.layer2_tl_0x2E
                0x000000000000a98c        0x4 CMakeFiles/kiibohd.elf.dir/Macro/PartialMap/macro.c.obj
                0x000000000000a98c                layer2_tl_0x2E
 .rodata.layer2_tl_0x2F
                0x000000000000a990        0x4 CMakeFiles/kiibohd.elf.dir/Macro/PartialMap/macro.c.obj
                0x000000000000a990                layer2_tl_0x2F
 .rodata.tm53_guide
                0x000000000000a994        0x5 CMakeFiles/kiibohd.elf.dir/Macro/PartialMap/macro.c.obj
                0x000000000000a994                tm53_guide
 .rodata.tm25_guide
                0x000000000000a999        0x5 CMakeFiles/kiibohd.elf.dir/Macro/PartialMap/macro.c.obj
                0x000000000000a999                tm25_guide
 .rodata.rm52_guide
                0x000000000000a99e        0x4 CMakeFiles/kiibohd.elf.dir/Macro/PartialMap/macro.c.obj
                0x000000000000a99e                rm52_guide
 .rodata.tm77_guide
                0x000000000000a9a2        0x5 CMakeFiles/kiibohd.elf.dir/Macro/PartialMap/macro.c.obj
                0x000000000000a9a2                tm77_guide
 .rodata.tm49_guide
                0x000000000000a9a7        0x5 CMakeFiles/kiibohd.elf.dir/Macro/PartialMap/macro.c.obj
                0x000000000000a9a7                tm49_guide
 .rodata.rm78_guide
                0x000000000000a9ac        0x4 CMakeFiles/kiibohd.elf.dir/Macro/PartialMap/macro.c.obj
                0x000000000000a9ac                rm78_guide
 .rodata.rm11_guide
                0x000000000000a9b0        0x4 CMakeFiles/kiibohd.elf.dir/Macro/PartialMap/macro.c.obj
                0x000000000000a9b0                rm11_guide
 .rodata.LayerIndex
                0x000000000000a9b4       0x24 CMakeFiles/kiibohd.elf.dir/Macro/PartialMap/macro.c.obj
                0x000000000000a9b4                LayerIndex
 .rodata.tm74_guide
                0x000000000000a9d8        0x5 CMakeFiles/kiibohd.elf.dir/Macro/PartialMap/macro.c.obj
                0x000000000000a9d8                tm74_guide
 .rodata.tm40_guide
                0x000000000000a9dd        0x5 CMakeFiles/kiibohd.elf.dir/Macro/PartialMap/macro.c.obj
                0x000000000000a9dd                tm40_guide
 .rodata.tm12_guide
                0x000000000000a9e2        0x5 CMakeFiles/kiibohd.elf.dir/Macro/PartialMap/macro.c.obj
                0x000000000000a9e2                tm12_guide
 .rodata.rm41_guide
                0x000000000000a9e7        0x4 CMakeFiles/kiibohd.elf.dir/Macro/PartialMap/macro.c.obj
                0x000000000000a9e7                rm41_guide
 *fill*         0x000000000000a9eb        0x1 
 .rodata.layer2_tl_0x30
                0x000000000000a9ec        0x8 CMakeFiles/kiibohd.elf.dir/Macro/PartialMap/macro.c.obj
                0x000000000000a9ec                layer2_tl_0x30
 .rodata.layer2_tl_0x31
                0x000000000000a9f4        0x8 CMakeFiles/kiibohd.elf.dir/Macro/PartialMap/macro.c.obj
                0x000000000000a9f4                layer2_tl_0x31
 .rodata.layer2_tl_0x32
                0x000000000000a9fc        0x8 CMakeFiles/kiibohd.elf.dir/Macro/PartialMap/macro.c.obj
                0x000000000000a9fc                layer2_tl_0x32
 .rodata.layer2_tl_0x33
                0x000000000000aa04        0x8 CMakeFiles/kiibohd.elf.dir/Macro/PartialMap/macro.c.obj
                0x000000000000aa04                layer2_tl_0x33
 .rodata.layer2_tl_0x34
                0x000000000000aa0c        0x8 CMakeFiles/kiibohd.elf.dir/Macro/PartialMap/macro.c.obj
                0x000000000000aa0c                layer2_tl_0x34
 .rodata.layer2_tl_0x35
                0x000000000000aa14        0x8 CMakeFiles/kiibohd.elf.dir/Macro/PartialMap/macro.c.obj
                0x000000000000aa14                layer2_tl_0x35
 .rodata.rm65_guide
                0x000000000000aa1c        0x4 CMakeFiles/kiibohd.elf.dir/Macro/PartialMap/macro.c.obj
                0x000000000000aa1c                rm65_guide
 .rodata.rm37_guide
                0x000000000000aa20        0x4 CMakeFiles/kiibohd.elf.dir/Macro/PartialMap/macro.c.obj
                0x000000000000aa20                rm37_guide
 .rodata.layer2_tl_0x23
                0x000000000000aa24        0x4 CMakeFiles/kiibohd.elf.dir/Macro/PartialMap/macro.c.obj
                0x000000000000aa24                layer2_tl_0x23
 .rodata.layer2_tl_0x24
                0x000000000000aa28        0x4 CMakeFiles/kiibohd.elf.dir/Macro/PartialMap/macro.c.obj
                0x000000000000aa28                layer2_tl_0x24
 .rodata.rm0_guide
                0x000000000000aa2c        0x4 CMakeFiles/kiibohd.elf.dir/Macro/PartialMap/macro.c.obj
                0x000000000000aa2c                rm0_guide
 .rodata.tm70_guide
                0x000000000000aa30        0x5 CMakeFiles/kiibohd.elf.dir/Macro/PartialMap/macro.c.obj
                0x000000000000aa30                tm70_guide
 .rodata.tm26_guide
                0x000000000000aa35        0x5 CMakeFiles/kiibohd.elf.dir/Macro/PartialMap/macro.c.obj
                0x000000000000aa35                tm26_guide
 .rodata.tm42_guide
                0x000000000000aa3a        0x5 CMakeFiles/kiibohd.elf.dir/Macro/PartialMap/macro.c.obj
                0x000000000000aa3a                tm42_guide
 .rodata.tm94_guide
                0x000000000000aa3f        0x5 CMakeFiles/kiibohd.elf.dir/Macro/PartialMap/macro.c.obj
                0x000000000000aa3f                tm94_guide
 .rodata.tm66_guide
                0x000000000000aa44        0x5 CMakeFiles/kiibohd.elf.dir/Macro/PartialMap/macro.c.obj
                0x000000000000aa44                tm66_guide
 *fill*         0x000000000000aa49        0x3 
 .rodata.layer1_tl_0x30
                0x000000000000aa4c        0x8 CMakeFiles/kiibohd.elf.dir/Macro/PartialMap/macro.c.obj
                0x000000000000aa4c                layer1_tl_0x30
 .rodata.tm38_guide
                0x000000000000aa54        0x5 CMakeFiles/kiibohd.elf.dir/Macro/PartialMap/macro.c.obj
                0x000000000000aa54                tm38_guide
 .rodata.capListCLIDict_DescEntry
                0x000000000000aa59       0x3c CMakeFiles/kiibohd.elf.dir/Macro/PartialMap/macro.c.obj
                0x000000000000aa59                capListCLIDict_DescEntry
 .rodata.rm59_guide
                0x000000000000aa95        0x5 CMakeFiles/kiibohd.elf.dir/Macro/PartialMap/macro.c.obj
                0x000000000000aa95                rm59_guide
 *fill*         0x000000000000aa9a        0x2 
 .rodata.default_tl_0x11
                0x000000000000aa9c        0x8 CMakeFiles/kiibohd.elf.dir/Macro/PartialMap/macro.c.obj
                0x000000000000aa9c                default_tl_0x11
 .rodata.rm4_guide
                0x000000000000aaa4        0x4 CMakeFiles/kiibohd.elf.dir/Macro/PartialMap/macro.c.obj
                0x000000000000aaa4                rm4_guide
 .rodata.default_tl_0x15
                0x000000000000aaa8        0x8 CMakeFiles/kiibohd.elf.dir/Macro/PartialMap/macro.c.obj
                0x000000000000aaa8                default_tl_0x15
 .rodata.rm30_guide
                0x000000000000aab0        0x4 CMakeFiles/kiibohd.elf.dir/Macro/PartialMap/macro.c.obj
                0x000000000000aab0                rm30_guide
 .rodata.rm82_guide
                0x000000000000aab4        0x4 CMakeFiles/kiibohd.elf.dir/Macro/PartialMap/macro.c.obj
                0x000000000000aab4                rm82_guide
 .rodata.rm54_guide
                0x000000000000aab8        0x4 CMakeFiles/kiibohd.elf.dir/Macro/PartialMap/macro.c.obj
                0x000000000000aab8                rm54_guide
 .rodata.rm26_guide
                0x000000000000aabc        0x4 CMakeFiles/kiibohd.elf.dir/Macro/PartialMap/macro.c.obj
                0x000000000000aabc                rm26_guide
 .rodata.layer2_tl_0x21
                0x000000000000aac0        0x4 CMakeFiles/kiibohd.elf.dir/Macro/PartialMap/macro.c.obj
                0x000000000000aac0                layer2_tl_0x21
 .rodata.rm8_guide
                0x000000000000aac4        0x4 CMakeFiles/kiibohd.elf.dir/Macro/PartialMap/macro.c.obj
                0x000000000000aac4                rm8_guide
 .rodata.tm83_guide
                0x000000000000aac8        0x5 CMakeFiles/kiibohd.elf.dir/Macro/PartialMap/macro.c.obj
                0x000000000000aac8                tm83_guide
 *fill*         0x000000000000aacd        0x3 
 .rodata.default_tl_0x1E
                0x000000000000aad0        0x8 CMakeFiles/kiibohd.elf.dir/Macro/PartialMap/macro.c.obj
                0x000000000000aad0                default_tl_0x1E
 .rodata.tm27_guide
                0x000000000000aad8        0x5 CMakeFiles/kiibohd.elf.dir/Macro/PartialMap/macro.c.obj
                0x000000000000aad8                tm27_guide
 .rodata.tm79_guide
                0x000000000000aadd        0x5 CMakeFiles/kiibohd.elf.dir/Macro/PartialMap/macro.c.obj
                0x000000000000aadd                tm79_guide
 *fill*         0x000000000000aae2        0x2 
 .rodata.layer2_tl_0x27
                0x000000000000aae4        0x4 CMakeFiles/kiibohd.elf.dir/Macro/PartialMap/macro.c.obj
                0x000000000000aae4                layer2_tl_0x27
 .rodata.rm13_guide
                0x000000000000aae8        0x6 CMakeFiles/kiibohd.elf.dir/Macro/PartialMap/macro.c.obj
                0x000000000000aae8                rm13_guide
 .rodata.rm3_guide
                0x000000000000aaee        0x4 CMakeFiles/kiibohd.elf.dir/Macro/PartialMap/macro.c.obj
                0x000000000000aaee                rm3_guide
 .rodata.rm71_guide
                0x000000000000aaf2        0x4 CMakeFiles/kiibohd.elf.dir/Macro/PartialMap/macro.c.obj
                0x000000000000aaf2                rm71_guide
 .rodata.tm14_guide
                0x000000000000aaf6        0x5 CMakeFiles/kiibohd.elf.dir/Macro/PartialMap/macro.c.obj
                0x000000000000aaf6                tm14_guide
 .rodata.rm43_guide
                0x000000000000aafb        0x4 CMakeFiles/kiibohd.elf.dir/Macro/PartialMap/macro.c.obj
                0x000000000000aafb                rm43_guide
 .rodata.rm15_guide
                0x000000000000aaff        0x4 CMakeFiles/kiibohd.elf.dir/Macro/PartialMap/macro.c.obj
                0x000000000000aaff                rm15_guide
 .rodata.tm54_guide
                0x000000000000ab03        0x5 CMakeFiles/kiibohd.elf.dir/Macro/PartialMap/macro.c.obj
                0x000000000000ab03                tm54_guide
 .rodata.rm67_guide
                0x000000000000ab08        0x8 CMakeFiles/kiibohd.elf.dir/Macro/PartialMap/macro.c.obj
                0x000000000000ab08                rm67_guide
 .rodata.rm39_guide
                0x000000000000ab10        0x4 CMakeFiles/kiibohd.elf.dir/Macro/PartialMap/macro.c.obj
                0x000000000000ab10                rm39_guide
 .rodata.tm72_guide
                0x000000000000ab14        0x5 CMakeFiles/kiibohd.elf.dir/Macro/PartialMap/macro.c.obj
                0x000000000000ab14                tm72_guide
 .rodata.rm6_guide
                0x000000000000ab19        0x4 CMakeFiles/kiibohd.elf.dir/Macro/PartialMap/macro.c.obj
                0x000000000000ab19                rm6_guide
 .rodata.tm44_guide
                0x000000000000ab1d        0x5 CMakeFiles/kiibohd.elf.dir/Macro/PartialMap/macro.c.obj
                0x000000000000ab1d                tm44_guide
 .rodata.tm16_guide
                0x000000000000ab22        0x5 CMakeFiles/kiibohd.elf.dir/Macro/PartialMap/macro.c.obj
                0x000000000000ab22                tm16_guide
 .rodata.tm81_guide
                0x000000000000ab27        0x5 CMakeFiles/kiibohd.elf.dir/Macro/PartialMap/macro.c.obj
                0x000000000000ab27                tm81_guide
 .rodata.tm68_guide
                0x000000000000ab2c        0x5 CMakeFiles/kiibohd.elf.dir/Macro/PartialMap/macro.c.obj
                0x000000000000ab2c                tm68_guide
 .rodata.tm5_guide
                0x000000000000ab31        0x5 CMakeFiles/kiibohd.elf.dir/Macro/PartialMap/macro.c.obj
                0x000000000000ab31                tm5_guide
 *fill*         0x000000000000ab36        0x2 
 .rodata.layer1_tl_0x18
                0x000000000000ab38        0x4 CMakeFiles/kiibohd.elf.dir/Macro/PartialMap/macro.c.obj
                0x000000000000ab38                layer1_tl_0x18
 .rodata.tm46_guide
                0x000000000000ab3c        0x5 CMakeFiles/kiibohd.elf.dir/Macro/PartialMap/macro.c.obj
                0x000000000000ab3c                tm46_guide
 .rodata.rm2_guide
                0x000000000000ab41        0x4 CMakeFiles/kiibohd.elf.dir/Macro/PartialMap/macro.c.obj
                0x000000000000ab41                rm2_guide
 .rodata.tm31_guide
                0x000000000000ab45        0x5 CMakeFiles/kiibohd.elf.dir/Macro/PartialMap/macro.c.obj
                0x000000000000ab45                tm31_guide
 .rodata.rm60_guide
                0x000000000000ab4a        0x4 CMakeFiles/kiibohd.elf.dir/Macro/PartialMap/macro.c.obj
                0x000000000000ab4a                rm60_guide
 .rodata.rm32_guide
                0x000000000000ab4e        0x4 CMakeFiles/kiibohd.elf.dir/Macro/PartialMap/macro.c.obj
                0x000000000000ab4e                rm32_guide
 .rodata.rm84_guide
                0x000000000000ab52        0x4 CMakeFiles/kiibohd.elf.dir/Macro/PartialMap/macro.c.obj
                0x000000000000ab52                rm84_guide
 .rodata.rm56_guide
                0x000000000000ab56        0x4 CMakeFiles/kiibohd.elf.dir/Macro/PartialMap/macro.c.obj
                0x000000000000ab56                rm56_guide
 .rodata.rm28_guide
                0x000000000000ab5a        0x4 CMakeFiles/kiibohd.elf.dir/Macro/PartialMap/macro.c.obj
                0x000000000000ab5a                rm28_guide
 .rodata.tm61_guide
                0x000000000000ab5e        0x5 CMakeFiles/kiibohd.elf.dir/Macro/PartialMap/macro.c.obj
                0x000000000000ab5e                tm61_guide
 .rodata.tm33_guide
                0x000000000000ab63        0x5 CMakeFiles/kiibohd.elf.dir/Macro/PartialMap/macro.c.obj
                0x000000000000ab63                tm33_guide
 .rodata.rm88_guide
                0x000000000000ab68        0x5 CMakeFiles/kiibohd.elf.dir/Macro/PartialMap/macro.c.obj
                0x000000000000ab68                rm88_guide
 .rodata.tm85_guide
                0x000000000000ab6d        0x5 CMakeFiles/kiibohd.elf.dir/Macro/PartialMap/macro.c.obj
                0x000000000000ab6d                tm85_guide
 .rodata.tm57_guide
                0x000000000000ab72        0x5 CMakeFiles/kiibohd.elf.dir/Macro/PartialMap/macro.c.obj
                0x000000000000ab72                tm57_guide
 .rodata.rm86_guide
                0x000000000000ab77        0x3 CMakeFiles/kiibohd.elf.dir/Macro/PartialMap/macro.c.obj
                0x000000000000ab77                rm86_guide
 .rodata.tm29_guide
                0x000000000000ab7a        0x5 CMakeFiles/kiibohd.elf.dir/Macro/PartialMap/macro.c.obj
                0x000000000000ab7a                tm29_guide
 .rodata.rm1_guide
                0x000000000000ab7f        0x4 CMakeFiles/kiibohd.elf.dir/Macro/PartialMap/macro.c.obj
                0x000000000000ab7f                rm1_guide
 .rodata.macroListCLIDict_DescEntry
                0x000000000000ab83       0x2c CMakeFiles/kiibohd.elf.dir/Macro/PartialMap/macro.c.obj
                0x000000000000ab83                macroListCLIDict_DescEntry
 .rodata.tm20_guide
                0x000000000000abaf        0x5 CMakeFiles/kiibohd.elf.dir/Macro/PartialMap/macro.c.obj
                0x000000000000abaf                tm20_guide
 .rodata.layerStateCLIDict_DescEntry
                0x000000000000abb4       0x87 CMakeFiles/kiibohd.elf.dir/Macro/PartialMap/macro.c.obj
                0x000000000000abb4                layerStateCLIDict_DescEntry
 .rodata.rm73_guide
                0x000000000000ac3b        0x4 CMakeFiles/kiibohd.elf.dir/Macro/PartialMap/macro.c.obj
                0x000000000000ac3b                rm73_guide
 .rodata.rm45_guide
                0x000000000000ac3f        0x4 CMakeFiles/kiibohd.elf.dir/Macro/PartialMap/macro.c.obj
                0x000000000000ac3f                rm45_guide
 .rodata.rm17_guide
                0x000000000000ac43        0x4 CMakeFiles/kiibohd.elf.dir/Macro/PartialMap/macro.c.obj
                0x000000000000ac43                rm17_guide
 *fill*         0x000000000000ac47        0x1 
 .rodata.default_tl_0x42
                0x000000000000ac48        0x8 CMakeFiles/kiibohd.elf.dir/Macro/PartialMap/macro.c.obj
                0x000000000000ac48                default_tl_0x42
 .rodata.rm69_guide
                0x000000000000ac50        0x4 CMakeFiles/kiibohd.elf.dir/Macro/PartialMap/macro.c.obj
                0x000000000000ac50                rm69_guide
 .rodata.tm50_guide
                0x000000000000ac54        0x5 CMakeFiles/kiibohd.elf.dir/Macro/PartialMap/macro.c.obj
                0x000000000000ac54                tm50_guide
 *fill*         0x000000000000ac59        0x3 
 .rodata.default_tl_0x02
                0x000000000000ac5c        0x8 CMakeFiles/kiibohd.elf.dir/Macro/PartialMap/macro.c.obj
                0x000000000000ac5c                default_tl_0x02
 .rodata.default_tl_0x03
                0x000000000000ac64        0x8 CMakeFiles/kiibohd.elf.dir/Macro/PartialMap/macro.c.obj
                0x000000000000ac64                default_tl_0x03
 .rodata.default_tl_0x04
                0x000000000000ac6c        0x8 CMakeFiles/kiibohd.elf.dir/Macro/PartialMap/macro.c.obj
                0x000000000000ac6c                default_tl_0x04
 .rodata.default_tl_0x05
                0x000000000000ac74        0x8 CMakeFiles/kiibohd.elf.dir/Macro/PartialMap/macro.c.obj
                0x000000000000ac74                default_tl_0x05
 .rodata.default_tl_0x06
                0x000000000000ac7c        0x8 CMakeFiles/kiibohd.elf.dir/Macro/PartialMap/macro.c.obj
                0x000000000000ac7c                default_tl_0x06
 .rodata.default_tl_0x07
                0x000000000000ac84        0x8 CMakeFiles/kiibohd.elf.dir/Macro/PartialMap/macro.c.obj
                0x000000000000ac84                default_tl_0x07
 .rodata.default_tl_0x08
                0x000000000000ac8c        0x8 CMakeFiles/kiibohd.elf.dir/Macro/PartialMap/macro.c.obj
                0x000000000000ac8c                default_tl_0x08
 .rodata.default_tl_0x09
                0x000000000000ac94        0x4 CMakeFiles/kiibohd.elf.dir/Macro/PartialMap/macro.c.obj
                0x000000000000ac94                default_tl_0x09
 .rodata.tm7_guide
                0x000000000000ac98        0x5 CMakeFiles/kiibohd.elf.dir/Macro/PartialMap/macro.c.obj
                0x000000000000ac98                tm7_guide
 .rodata.layerListCLIDict_DescEntry
                0x000000000000ac9d       0x17 CMakeFiles/kiibohd.elf.dir/Macro/PartialMap/macro.c.obj
                0x000000000000ac9d                layerListCLIDict_DescEntry
 .rodata.default_tl_0x0A
                0x000000000000acb4        0x4 CMakeFiles/kiibohd.elf.dir/Macro/PartialMap/macro.c.obj
                0x000000000000acb4                default_tl_0x0A
 .rodata.default_tl_0x0B
                0x000000000000acb8        0x8 CMakeFiles/kiibohd.elf.dir/Macro/PartialMap/macro.c.obj
                0x000000000000acb8                default_tl_0x0B
 .rodata.default_tl_0x0C
                0x000000000000acc0        0x8 CMakeFiles/kiibohd.elf.dir/Macro/PartialMap/macro.c.obj
                0x000000000000acc0                default_tl_0x0C
 .rodata.default_tl_0x0D
                0x000000000000acc8        0x8 CMakeFiles/kiibohd.elf.dir/Macro/PartialMap/macro.c.obj
                0x000000000000acc8                default_tl_0x0D
 .rodata.default_tl_0x0E
                0x000000000000acd0        0x8 CMakeFiles/kiibohd.elf.dir/Macro/PartialMap/macro.c.obj
                0x000000000000acd0                default_tl_0x0E
 .rodata.default_tl_0x0F
                0x000000000000acd8        0x8 CMakeFiles/kiibohd.elf.dir/Macro/PartialMap/macro.c.obj
                0x000000000000acd8                default_tl_0x0F
 .rodata.rm90_guide
                0x000000000000ace0        0x5 CMakeFiles/kiibohd.elf.dir/Macro/PartialMap/macro.c.obj
                0x000000000000ace0                rm90_guide
 .rodata.rm62_guide
                0x000000000000ace5        0x4 CMakeFiles/kiibohd.elf.dir/Macro/PartialMap/macro.c.obj
                0x000000000000ace5                rm62_guide
 .rodata.rm34_guide
                0x000000000000ace9        0x6 CMakeFiles/kiibohd.elf.dir/Macro/PartialMap/macro.c.obj
                0x000000000000ace9                rm34_guide
 .rodata.rm58_guide
                0x000000000000acef        0x4 CMakeFiles/kiibohd.elf.dir/Macro/PartialMap/macro.c.obj
                0x000000000000acef                rm58_guide
 .rodata.tm91_guide
                0x000000000000acf3        0x5 CMakeFiles/kiibohd.elf.dir/Macro/PartialMap/macro.c.obj
                0x000000000000acf3                tm91_guide
 .rodata.tm63_guide
                0x000000000000acf8        0x5 CMakeFiles/kiibohd.elf.dir/Macro/PartialMap/macro.c.obj
                0x000000000000acf8                tm63_guide
 *fill*         0x000000000000acfd        0x3 
 .rodata.default_tl_0x10
                0x000000000000ad00        0x8 CMakeFiles/kiibohd.elf.dir/Macro/PartialMap/macro.c.obj
                0x000000000000ad00                default_tl_0x10
 .rodata.tm35_guide
                0x000000000000ad08        0x5 CMakeFiles/kiibohd.elf.dir/Macro/PartialMap/macro.c.obj
                0x000000000000ad08                tm35_guide
 *fill*         0x000000000000ad0d        0x3 
 .rodata.default_tl_0x12
                0x000000000000ad10        0x4 CMakeFiles/kiibohd.elf.dir/Macro/PartialMap/macro.c.obj
                0x000000000000ad10                default_tl_0x12
 .rodata.default_tl_0x13
                0x000000000000ad14        0x4 CMakeFiles/kiibohd.elf.dir/Macro/PartialMap/macro.c.obj
                0x000000000000ad14                default_tl_0x13
 .rodata.default_tl_0x14
                0x000000000000ad18        0x4 CMakeFiles/kiibohd.elf.dir/Macro/PartialMap/macro.c.obj
                0x000000000000ad18                default_tl_0x14
 .rodata.tm87_guide
                0x000000000000ad1c        0x5 CMakeFiles/kiibohd.elf.dir/Macro/PartialMap/macro.c.obj
                0x000000000000ad1c                tm87_guide
 *fill*         0x000000000000ad21        0x3 
 .rodata.default_tl_0x16
                0x000000000000ad24        0x8 CMakeFiles/kiibohd.elf.dir/Macro/PartialMap/macro.c.obj
                0x000000000000ad24                default_tl_0x16
 .rodata.default_tl_0x17
                0x000000000000ad2c        0x8 CMakeFiles/kiibohd.elf.dir/Macro/PartialMap/macro.c.obj
                0x000000000000ad2c                default_tl_0x17
 .rodata.default_tl_0x18
                0x000000000000ad34        0x8 CMakeFiles/kiibohd.elf.dir/Macro/PartialMap/macro.c.obj
                0x000000000000ad34                default_tl_0x18
 .rodata.default_tl_0x19
                0x000000000000ad3c        0x8 CMakeFiles/kiibohd.elf.dir/Macro/PartialMap/macro.c.obj
                0x000000000000ad3c                default_tl_0x19
 .rodata.default_tl_0x1A
                0x000000000000ad44        0x8 CMakeFiles/kiibohd.elf.dir/Macro/PartialMap/macro.c.obj
                0x000000000000ad44                default_tl_0x1A
 .rodata.default_tl_0x1B
                0x000000000000ad4c        0x8 CMakeFiles/kiibohd.elf.dir/Macro/PartialMap/macro.c.obj
                0x000000000000ad4c                default_tl_0x1B
 .rodata.default_tl_0x1C
                0x000000000000ad54        0x8 CMakeFiles/kiibohd.elf.dir/Macro/PartialMap/macro.c.obj
                0x000000000000ad54                default_tl_0x1C
 .rodata.default_tl_0x1D
                0x000000000000ad5c        0x8 CMakeFiles/kiibohd.elf.dir/Macro/PartialMap/macro.c.obj
                0x000000000000ad5c                default_tl_0x1D
 .rodata.tm69_guide
                0x000000000000ad64        0x5 CMakeFiles/kiibohd.elf.dir/Macro/PartialMap/macro.c.obj
                0x000000000000ad64                tm69_guide
 *fill*         0x000000000000ad69        0x3 
 .rodata.default_tl_0x1F
                0x000000000000ad6c        0x8 CMakeFiles/kiibohd.elf.dir/Macro/PartialMap/macro.c.obj
                0x000000000000ad6c                default_tl_0x1F
 .rodata.tm89_guide
                0x000000000000ad74        0x5 CMakeFiles/kiibohd.elf.dir/Macro/PartialMap/macro.c.obj
                0x000000000000ad74                tm89_guide
 .rodata.tm24_guide
                0x000000000000ad79        0x5 CMakeFiles/kiibohd.elf.dir/Macro/PartialMap/macro.c.obj
                0x000000000000ad79                tm24_guide
 .rodata.str1.1
                0x000000000000ad7e      0x647 CMakeFiles/kiibohd.elf.dir/Macro/PartialMap/macro.c.obj
                                        0x673 (size before relaxing)
 .rodata.tm22_guide
                0x000000000000b3c5        0x5 CMakeFiles/kiibohd.elf.dir/Macro/PartialMap/macro.c.obj
                0x000000000000b3c5                tm22_guide
 .rodata.rm51_guide
                0x000000000000b3ca        0x4 CMakeFiles/kiibohd.elf.dir/Macro/PartialMap/macro.c.obj
                0x000000000000b3ca                rm51_guide
 .rodata.rm23_guide
                0x000000000000b3ce        0x4 CMakeFiles/kiibohd.elf.dir/Macro/PartialMap/macro.c.obj
                0x000000000000b3ce                rm23_guide
 .rodata.rm75_guide
                0x000000000000b3d2        0x4 CMakeFiles/kiibohd.elf.dir/Macro/PartialMap/macro.c.obj
                0x000000000000b3d2                rm75_guide
 .rodata.rm47_guide
                0x000000000000b3d6        0x4 CMakeFiles/kiibohd.elf.dir/Macro/PartialMap/macro.c.obj
                0x000000000000b3d6                rm47_guide
 .rodata.rm19_guide
                0x000000000000b3da        0x4 CMakeFiles/kiibohd.elf.dir/Macro/PartialMap/macro.c.obj
                0x000000000000b3da                rm19_guide
 .rodata.macroShowCLIDict_DescEntry
                0x000000000000b3de       0x84 CMakeFiles/kiibohd.elf.dir/Macro/PartialMap/macro.c.obj
                0x000000000000b3de                macroShowCLIDict_DescEntry
 .rodata.tm80_guide
                0x000000000000b462        0x5 CMakeFiles/kiibohd.elf.dir/Macro/PartialMap/macro.c.obj
                0x000000000000b462                tm80_guide
 .rodata.tm52_guide
                0x000000000000b467        0x5 CMakeFiles/kiibohd.elf.dir/Macro/PartialMap/macro.c.obj
                0x000000000000b467                tm52_guide
 .rodata.default_tl_0x20
                0x000000000000b46c        0x8 CMakeFiles/kiibohd.elf.dir/Macro/PartialMap/macro.c.obj
                0x000000000000b46c                default_tl_0x20
 .rodata.default_tl_0x21
                0x000000000000b474        0x8 CMakeFiles/kiibohd.elf.dir/Macro/PartialMap/macro.c.obj
                0x000000000000b474                default_tl_0x21
 .rodata.default_tl_0x22
                0x000000000000b47c        0x8 CMakeFiles/kiibohd.elf.dir/Macro/PartialMap/macro.c.obj
                0x000000000000b47c                default_tl_0x22
 .rodata.default_tl_0x23
                0x000000000000b484        0x8 CMakeFiles/kiibohd.elf.dir/Macro/PartialMap/macro.c.obj
                0x000000000000b484                default_tl_0x23
 .rodata.default_tl_0x24
                0x000000000000b48c        0x8 CMakeFiles/kiibohd.elf.dir/Macro/PartialMap/macro.c.obj
                0x000000000000b48c                default_tl_0x24
 .rodata.default_tl_0x25
                0x000000000000b494        0x8 CMakeFiles/kiibohd.elf.dir/Macro/PartialMap/macro.c.obj
                0x000000000000b494                default_tl_0x25
 .rodata.default_tl_0x26
                0x000000000000b49c        0x8 CMakeFiles/kiibohd.elf.dir/Macro/PartialMap/macro.c.obj
                0x000000000000b49c                default_tl_0x26
 .rodata.default_tl_0x27
                0x000000000000b4a4        0x8 CMakeFiles/kiibohd.elf.dir/Macro/PartialMap/macro.c.obj
                0x000000000000b4a4                default_tl_0x27
 .rodata.default_tl_0x28
                0x000000000000b4ac        0x8 CMakeFiles/kiibohd.elf.dir/Macro/PartialMap/macro.c.obj
                0x000000000000b4ac                default_tl_0x28
 .rodata.default_tl_0x29
                0x000000000000b4b4        0x8 CMakeFiles/kiibohd.elf.dir/Macro/PartialMap/macro.c.obj
                0x000000000000b4b4                default_tl_0x29
 .rodata.tm9_guide
                0x000000000000b4bc        0x5 CMakeFiles/kiibohd.elf.dir/Macro/PartialMap/macro.c.obj
                0x000000000000b4bc                tm9_guide
 .rodata.rm10_guide
                0x000000000000b4c1        0x4 CMakeFiles/kiibohd.elf.dir/Macro/PartialMap/macro.c.obj
                0x000000000000b4c1                rm10_guide
 *fill*         0x000000000000b4c5        0x3 
 .rodata.default_tl_0x2A
                0x000000000000b4c8        0x8 CMakeFiles/kiibohd.elf.dir/Macro/PartialMap/macro.c.obj
                0x000000000000b4c8                default_tl_0x2A
 .rodata.str1.1
                0x000000000000b4d0       0xb3 CMakeFiles/kiibohd.elf.dir/Macro/PartialMap/trigger.c.obj
 .rodata.kbdProtocolCLIDict_DescEntry
                0x000000000000b583       0x33 CMakeFiles/kiibohd.elf.dir/Output/pjrcUSB/output_com.c.obj
                0x000000000000b583                kbdProtocolCLIDict_DescEntry
 .rodata.setKeysCLIDict_DescEntry
                0x000000000000b5b6       0x56 CMakeFiles/kiibohd.elf.dir/Output/pjrcUSB/output_com.c.obj
                0x000000000000b5b6                setKeysCLIDict_DescEntry
 .rodata.outputCLIDictName
                0x000000000000b60c       0x14 CMakeFiles/kiibohd.elf.dir/Output/pjrcUSB/output_com.c.obj
                0x000000000000b60c                outputCLIDictName
 .rodata.CSWTCH.90
                0x000000000000b620       0x70 CMakeFiles/kiibohd.elf.dir/Output/pjrcUSB/output_com.c.obj
 .rodata.CSWTCH.87
                0x000000000000b690       0x2f CMakeFiles/kiibohd.elf.dir/Output/pjrcUSB/output_com.c.obj
 .rodata.outputDebugCLIDict_DescEntry
                0x000000000000b6bf       0x1a CMakeFiles/kiibohd.elf.dir/Output/pjrcUSB/output_com.c.obj
                0x000000000000b6bf                outputDebugCLIDict_DescEntry
 *fill*         0x000000000000b6d9        0x3 
 .rodata.outputCLIDict
                0x000000000000b6dc       0x60 CMakeFiles/kiibohd.elf.dir/Output/pjrcUSB/output_com.c.obj
                0x000000000000b6dc                outputCLIDict
 .rodata.setModCLIDict_DescEntry
                0x000000000000b73c       0x61 CMakeFiles/kiibohd.elf.dir/Output/pjrcUSB/output_com.c.obj
                0x000000000000b73c                setModCLIDict_DescEntry
 .rodata.str1.1
                0x000000000000b79d      0x2ee CMakeFiles/kiibohd.elf.dir/Output/pjrcUSB/output_com.c.obj
                                        0x2f1 (size before relaxing)
 .rodata.usbInitTimeCLIDict_DescEntry
                0x000000000000ba8b       0x42 CMakeFiles/kiibohd.elf.dir/Output/pjrcUSB/output_com.c.obj
                0x000000000000ba8b                usbInitTimeCLIDict_DescEntry
 .rodata.CSWTCH.91
                0x000000000000bacd        0x8 CMakeFiles/kiibohd.elf.dir/Output/pjrcUSB/output_com.c.obj
 .rodata.CSWTCH.89
                0x000000000000bad5       0x70 CMakeFiles/kiibohd.elf.dir/Output/pjrcUSB/output_com.c.obj
 .rodata.readLEDsCLIDict_DescEntry
                0x000000000000bb45       0x40 CMakeFiles/kiibohd.elf.dir/Output/pjrcUSB/output_com.c.obj
                0x000000000000bb45                readLEDsCLIDict_DescEntry
 .rodata.CSWTCH.88
                0x000000000000bb85       0x2f CMakeFiles/kiibohd.elf.dir/Output/pjrcUSB/output_com.c.obj
 .rodata.CSWTCH.92
                0x000000000000bbb4       0x30 CMakeFiles/kiibohd.elf.dir/Output/pjrcUSB/output_com.c.obj
 .rodata.CSWTCH.93
                0x000000000000bbe4       0x30 CMakeFiles/kiibohd.elf.dir/Output/pjrcUSB/output_com.c.obj
 .rodata.sendKeysCLIDict_DescEntry
                0x000000000000bc14       0x37 CMakeFiles/kiibohd.elf.dir/Output/pjrcUSB/output_com.c.obj
                0x000000000000bc14                sendKeysCLIDict_DescEntry
 .rodata.usb_endpoint_config_table
                0x000000000000bc4b        0xa CMakeFiles/kiibohd.elf.dir/Output/pjrcUSB/arm/usb_desc.c.obj
                0x000000000000bc4b                usb_endpoint_config_table
 *fill*         0x000000000000bc55        0x3 
 .rodata.usb_descriptor_list
                0x000000000000bc58      0x114 CMakeFiles/kiibohd.elf.dir/Output/pjrcUSB/arm/usb_desc.c.obj
                0x000000000000bc58                usb_descriptor_list
 .rodata.str1.1
                0x000000000000bd6c      0x11e CMakeFiles/kiibohd.elf.dir/Output/pjrcUSB/arm/usb_dev.c.obj
                                        0x125 (size before relaxing)
 .rodata.str1.1
                0x000000000000be8a       0xc5 CMakeFiles/kiibohd.elf.dir/Output/pjrcUSB/arm/usb_keyboard.c.obj
                                         0xca (size before relaxing)
 .rodata.str1.1
                0x000000000000bf4f       0x2f CMakeFiles/kiibohd.elf.dir/Output/pjrcUSB/arm/usb_mouse.c.obj
                                         0x5c (size before relaxing)
 .rodata        0x000000000000bf7e        0x4 CMakeFiles/kiibohd.elf.dir/Debug/cli/cli.c.obj
 .rodata.helpCLIDict_DescEntry
                0x000000000000bf82       0x18 CMakeFiles/kiibohd.elf.dir/Debug/cli/cli.c.obj
                0x000000000000bf82                helpCLIDict_DescEntry
 .rodata.restartCLIDict_DescEntry
                0x000000000000bf9a       0x47 CMakeFiles/kiibohd.elf.dir/Debug/cli/cli.c.obj
                0x000000000000bf9a                restartCLIDict_DescEntry
 .rodata.resetCLIDict_DescEntry
                0x000000000000bfe1       0x2e CMakeFiles/kiibohd.elf.dir/Debug/cli/cli.c.obj
                0x000000000000bfe1                resetCLIDict_DescEntry
 .rodata.clearCLIDict_DescEntry
                0x000000000000c00f       0x12 CMakeFiles/kiibohd.elf.dir/Debug/cli/cli.c.obj
                0x000000000000c00f                clearCLIDict_DescEntry
 .rodata.reloadCLIDict_DescEntry
                0x000000000000c021       0x2b CMakeFiles/kiibohd.elf.dir/Debug/cli/cli.c.obj
                0x000000000000c021                reloadCLIDict_DescEntry
 .rodata.versionCLIDict_DescEntry
                0x000000000000c04c       0x29 CMakeFiles/kiibohd.elf.dir/Debug/cli/cli.c.obj
                0x000000000000c04c                versionCLIDict_DescEntry
 .rodata.str1.1
                0x000000000000c075      0x3be CMakeFiles/kiibohd.elf.dir/Debug/cli/cli.c.obj
                                        0x468 (size before relaxing)
 *fill*         0x000000000000c433        0x1 
 .rodata.basicCLIDict
                0x000000000000c434       0x6c CMakeFiles/kiibohd.elf.dir/Debug/cli/cli.c.obj
                0x000000000000c434                basicCLIDict
 .rodata.ledCLIDict_DescEntry
                0x000000000000c4a0       0x96 CMakeFiles/kiibohd.elf.dir/Debug/cli/cli.c.obj
                0x000000000000c4a0                ledCLIDict_DescEntry
 .rodata.basicCLIDictName
                0x000000000000c536       0x11 CMakeFiles/kiibohd.elf.dir/Debug/cli/cli.c.obj
                0x000000000000c536                basicCLIDictName
 .rodata.cliDebugCLIDict_DescEntry
                0x000000000000c547       0x3a CMakeFiles/kiibohd.elf.dir/Debug/cli/cli.c.obj
                0x000000000000c547                cliDebugCLIDict_DescEntry
                0x000000000000c584                . = ALIGN (0x4)
 *fill*         0x000000000000c581        0x3 
 *(.init)

.glue_7         0x000000000000c584        0x0
 .glue_7        0x000000000000c584        0x0 linker stubs

.glue_7t        0x000000000000c584        0x0
 .glue_7t       0x000000000000c584        0x0 linker stubs

.vfp11_veneer   0x000000000000c584        0x0
 .vfp11_veneer  0x000000000000c584        0x0 linker stubs

.v4_bx          0x000000000000c584        0x0
 .v4_bx         0x000000000000c584        0x0 linker stubs

.iplt           0x000000000000c584        0x0
 .iplt          0x000000000000c584        0x0 CMakeFiles/kiibohd.elf.dir/main.c.obj

.rel.dyn        0x000000000000c584        0x0
 .rel.iplt      0x000000000000c584        0x0 CMakeFiles/kiibohd.elf.dir/main.c.obj

.ARM.exidx      0x000000000000c584        0x0
                0x000000000000c584                __exidx_start = .
 *(.ARM.exidx* .gnu.linkonce.armexidx.*)
                0x000000000000c584                __exidx_end = .
                0x000000000000c584                _etext = .

.usbdescriptortable
                0x000000001fff8000      0x160
                0x000000001fff8000                . = ALIGN (0x200)
 *(.usbdescriptortable*)
 .usbdescriptortable
                0x000000001fff8000      0x160 CMakeFiles/kiibohd.elf.dir/Output/pjrcUSB/arm/usb_dev.c.obj

.dmabuffers     0x000000001fff8160        0x0
                0x000000001fff8160                . = ALIGN (0x4)
 *(.dmabuffers*)

.usbbuffers     0x000000001fff8160      0x870
                0x000000001fff8160                . = ALIGN (0x4)
 *(.usbbuffers*)
 .usbbuffers    0x000000001fff8160      0x870 CMakeFiles/kiibohd.elf.dir/Output/pjrcUSB/arm/usb_mem.c.obj
                0x000000001fff8160                usb_buffer_memory

.data           0x000000001fff89d0      0x6f4 load address 0x000000000000c584
                0x000000001fff89d0                . = ALIGN (0x4)
                0x000000001fff89d0                _sdata = .
 *(.data*)
 .data.I2C_RxBuffer
                0x000000001fff89d0        0xc CMakeFiles/kiibohd.elf.dir/Scan/ISSILed/led_scan.c.obj
                0x000000001fff89d0                I2C_RxBuffer
 .data.I2C_TxBuffer
                0x000000001fff89dc        0xc CMakeFiles/kiibohd.elf.dir/Scan/ISSILed/led_scan.c.obj
                0x000000001fff89dc                I2C_TxBuffer
 .data.Matrix_cols
                0x000000001fff89e8       0x12 CMakeFiles/kiibohd.elf.dir/Scan/MatrixARM/matrix_scan.c.obj
                0x000000001fff89e8                Matrix_cols
 .data.Matrix_rows
                0x000000001fff89fa        0xa CMakeFiles/kiibohd.elf.dir/Scan/MatrixARM/matrix_scan.c.obj
                0x000000001fff89fa                Matrix_rows
 .data.Matrix_type
                0x000000001fff8a04        0x1 CMakeFiles/kiibohd.elf.dir/Scan/MatrixARM/matrix_scan.c.obj
                0x000000001fff8a04                Matrix_type
 .data.Connect_id
                0x000000001fff8a05        0x1 CMakeFiles/kiibohd.elf.dir/Scan/UARTConnect/connect_scan.c.obj
                0x000000001fff8a05                Connect_id
 .data.Connect_baud
                0x000000001fff8a06        0x2 CMakeFiles/kiibohd.elf.dir/Scan/UARTConnect/connect_scan.c.obj
                0x000000001fff8a06                Connect_baud
 .data.Connect_receiveFunctions
                0x000000001fff8a08       0x1c CMakeFiles/kiibohd.elf.dir/Scan/UARTConnect/connect_scan.c.obj
                0x000000001fff8a08                Connect_receiveFunctions
 .data.layer1_scanMap
                0x000000001fff8a24       0xcc CMakeFiles/kiibohd.elf.dir/Macro/PartialMap/macro.c.obj
                0x000000001fff8a24                layer1_scanMap
 .data.default_scanMap
                0x000000001fff8af0      0x160 CMakeFiles/kiibohd.elf.dir/Macro/PartialMap/macro.c.obj
                0x000000001fff8af0                default_scanMap
 .data.layer2_scanMap
                0x000000001fff8c50       0xb8 CMakeFiles/kiibohd.elf.dir/Macro/PartialMap/macro.c.obj
                0x000000001fff8c50                layer2_scanMap
 .data.USBKeys_Protocol
                0x000000001fff8d08        0x1 CMakeFiles/kiibohd.elf.dir/Output/pjrcUSB/output_com.c.obj
                0x000000001fff8d08                USBKeys_Protocol
 .data.nkro_keyboard_report_desc
                0x000000001fff8d09       0x7d CMakeFiles/kiibohd.elf.dir/Output/pjrcUSB/arm/usb_desc.c.obj
 .data.usb_string_cdc_data_name
                0x000000001fff8d86       0x38 CMakeFiles/kiibohd.elf.dir/Output/pjrcUSB/arm/usb_desc.c.obj
                0x000000001fff8d86                usb_string_cdc_data_name
 .data.usb_string_mouse_name
                0x000000001fff8dbe        0xe CMakeFiles/kiibohd.elf.dir/Output/pjrcUSB/arm/usb_desc.c.obj
                0x000000001fff8dbe                usb_string_mouse_name
 .data.usb_string_sys_ctrl_name
                0x000000001fff8dcc       0x18 CMakeFiles/kiibohd.elf.dir/Output/pjrcUSB/arm/usb_desc.c.obj
                0x000000001fff8dcc                usb_string_sys_ctrl_name
 .data.usb_string_nkro_keyboard_name
                0x000000001fff8de4       0x1e CMakeFiles/kiibohd.elf.dir/Output/pjrcUSB/arm/usb_desc.c.obj
                0x000000001fff8de4                usb_string_nkro_keyboard_name
 .data.config_descriptor
                0x000000001fff8e02       0xaf CMakeFiles/kiibohd.elf.dir/Output/pjrcUSB/arm/usb_desc.c.obj
 .data.mouse_report_desc
                0x000000001fff8eb1       0x33 CMakeFiles/kiibohd.elf.dir/Output/pjrcUSB/arm/usb_desc.c.obj
 .data.sys_ctrl_report_desc
                0x000000001fff8ee4       0x35 CMakeFiles/kiibohd.elf.dir/Output/pjrcUSB/arm/usb_desc.c.obj
 *fill*         0x000000001fff8f19        0x1 
 .data.usb_string_keyboard_name
                0x000000001fff8f1a       0x1e CMakeFiles/kiibohd.elf.dir/Output/pjrcUSB/arm/usb_desc.c.obj
                0x000000001fff8f1a                usb_string_keyboard_name
 .data.device_descriptor
                0x000000001fff8f38       0x12 CMakeFiles/kiibohd.elf.dir/Output/pjrcUSB/arm/usb_desc.c.obj
 .data.usb_string_cdc_status_name
                0x000000001fff8f4a       0x3c CMakeFiles/kiibohd.elf.dir/Output/pjrcUSB/arm/usb_desc.c.obj
                0x000000001fff8f4a                usb_string_cdc_status_name
 .data.usb_string_manufacturer_name_default
                0x000000001fff8f86       0x18 CMakeFiles/kiibohd.elf.dir/Output/pjrcUSB/arm/usb_desc.c.obj
                0x000000001fff8f86                usb_string_manufacturer_name_default
                0x000000001fff8f86                usb_string_manufacturer_name
 *fill*         0x000000001fff8f9e        0x2 
 .data.usb_bMaxPower
                0x000000001fff8fa0        0x4 CMakeFiles/kiibohd.elf.dir/Output/pjrcUSB/arm/usb_desc.c.obj
                0x000000001fff8fa0                usb_bMaxPower
 .data.usb_string_product_name_default
                0x000000001fff8fa4       0x6a CMakeFiles/kiibohd.elf.dir/Output/pjrcUSB/arm/usb_desc.c.obj
                0x000000001fff8fa4                usb_string_product_name
                0x000000001fff8fa4                usb_string_product_name_default
 .data.keyboard_report_desc
                0x000000001fff900e       0x3f CMakeFiles/kiibohd.elf.dir/Output/pjrcUSB/arm/usb_desc.c.obj
 *fill*         0x000000001fff904d        0x1 
 .data.string0  0x000000001fff904e        0x4 CMakeFiles/kiibohd.elf.dir/Output/pjrcUSB/arm/usb_desc.c.obj
                0x000000001fff904e                string0
 .data.usb_string_serial_number_default
                0x000000001fff9052       0x64 CMakeFiles/kiibohd.elf.dir/Output/pjrcUSB/arm/usb_desc.c.obj
                0x000000001fff9052                usb_string_serial_number_default
                0x000000001fff9052                usb_string_serial_number
 *fill*         0x000000001fff90b6        0x2 
 .data.usb_buffer_available
                0x000000001fff90b8        0x4 CMakeFiles/kiibohd.elf.dir/Output/pjrcUSB/arm/usb_mem.c.obj
 .data.usb_cdc_line_coding
                0x000000001fff90bc        0x8 CMakeFiles/kiibohd.elf.dir/Output/pjrcUSB/arm/usb_serial.c.obj
                0x000000001fff90bc                usb_cdc_line_coding
                0x000000001fff90c4                . = ALIGN (0x4)
                0x000000001fff90c4                _edata = .

.igot.plt       0x000000001fff90c4        0x0 load address 0x000000000000cc78
 .igot.plt      0x000000001fff90c4        0x0 CMakeFiles/kiibohd.elf.dir/main.c.obj

.noinit
 *(.noinit*)

.bss            0x000000001fff90c4     0x1534 load address 0x000000000000cc78
                0x000000001fff90c4                . = ALIGN (0x4)
                0x000000001fff90c4                _sbss = .
 *(.bss*)
 .bss.systick_millis_count
                0x000000001fff90c4        0x4 CMakeFiles/kiibohd.elf.dir/Lib/delay.c.obj
                0x000000001fff90c4                systick_millis_count
 .bss.LED_currentEvent
                0x000000001fff90c8        0x4 CMakeFiles/kiibohd.elf.dir/Scan/ISSILed/led_scan.c.obj
                0x000000001fff90c8                LED_currentEvent
 .bss.LED_control_timer
                0x000000001fff90cc        0x1 CMakeFiles/kiibohd.elf.dir/Scan/ISSILed/led_scan.c.obj
                0x000000001fff90cc                LED_control_timer
 *fill*         0x000000001fff90cd        0x1 
 .bss.matrixCurScans
                0x000000001fff90ce        0x2 CMakeFiles/kiibohd.elf.dir/Scan/MatrixARM/matrix_scan.c.obj
                0x000000001fff90ce                matrixCurScans
 .bss.matrixPrevScans
                0x000000001fff90d0        0x2 CMakeFiles/kiibohd.elf.dir/Scan/MatrixARM/matrix_scan.c.obj
                0x000000001fff90d0                matrixPrevScans
 .bss.matrixMaxScans
                0x000000001fff90d2        0x2 CMakeFiles/kiibohd.elf.dir/Scan/MatrixARM/matrix_scan.c.obj
                0x000000001fff90d2                matrixMaxScans
 .bss.matrixDebugMode
                0x000000001fff90d4        0x1 CMakeFiles/kiibohd.elf.dir/Scan/MatrixARM/matrix_scan.c.obj
                0x000000001fff90d4                matrixDebugMode
 *fill*         0x000000001fff90d5        0x1 
 .bss.matrixDebugStateCounter
                0x000000001fff90d6        0x2 CMakeFiles/kiibohd.elf.dir/Scan/MatrixARM/matrix_scan.c.obj
                0x000000001fff90d6                matrixDebugStateCounter
 .bss.LCD_layerStack_prevSize
                0x000000001fff90d8        0x2 CMakeFiles/kiibohd.elf.dir/Scan/STLcd/lcd_scan.c.obj
                0x000000001fff90d8                LCD_layerStack_prevSize
 .bss.was_capslock.4397
                0x000000001fff90da        0x1 CMakeFiles/kiibohd.elf.dir/Scan/STLcd/lcd_scan.c.obj
 *fill*         0x000000001fff90db        0x1 
 .bss.LCD_layerStack_prevTop
                0x000000001fff90dc        0x2 CMakeFiles/kiibohd.elf.dir/Scan/STLcd/lcd_scan.c.obj
                0x000000001fff90dc                LCD_layerStack_prevTop
 .bss.hold_color.4396
                0x000000001fff90de        0x6 CMakeFiles/kiibohd.elf.dir/Scan/STLcd/lcd_scan.c.obj
 .bss.Connect_lastCheck
                0x000000001fff90e4        0x4 CMakeFiles/kiibohd.elf.dir/Scan/UARTConnect/connect_scan.c.obj
                0x000000001fff90e4                Connect_lastCheck
 .bss.Connect_cableOkMaster
                0x000000001fff90e8        0x1 CMakeFiles/kiibohd.elf.dir/Scan/UARTConnect/connect_scan.c.obj
                0x000000001fff90e8                Connect_cableOkMaster
 .bss.uarts_configured
                0x000000001fff90e9        0x1 CMakeFiles/kiibohd.elf.dir/Scan/UARTConnect/connect_scan.c.obj
                0x000000001fff90e9                uarts_configured
 .bss.Connect_baudFine
                0x000000001fff90ea        0x2 CMakeFiles/kiibohd.elf.dir/Scan/UARTConnect/connect_scan.c.obj
                0x000000001fff90ea                Connect_baudFine
 .bss.Connect_cableFaultsSlave
                0x000000001fff90ec        0x4 CMakeFiles/kiibohd.elf.dir/Scan/UARTConnect/connect_scan.c.obj
                0x000000001fff90ec                Connect_cableFaultsSlave
 .bss.Connect_cableChecksMaster
                0x000000001fff90f0        0x4 CMakeFiles/kiibohd.elf.dir/Scan/UARTConnect/connect_scan.c.obj
                0x000000001fff90f0                Connect_cableChecksMaster
 .bss.Connect_cableFaultsMaster
                0x000000001fff90f4        0x4 CMakeFiles/kiibohd.elf.dir/Scan/UARTConnect/connect_scan.c.obj
                0x000000001fff90f4                Connect_cableFaultsMaster
 .bss.Connect_cableOkSlave
                0x000000001fff90f8        0x1 CMakeFiles/kiibohd.elf.dir/Scan/UARTConnect/connect_scan.c.obj
                0x000000001fff90f8                Connect_cableOkSlave
 .bss.Connect_maxId
                0x000000001fff90f9        0x1 CMakeFiles/kiibohd.elf.dir/Scan/UARTConnect/connect_scan.c.obj
                0x000000001fff90f9                Connect_maxId
 .bss.Connect_debug
                0x000000001fff90fa        0x1 CMakeFiles/kiibohd.elf.dir/Scan/UARTConnect/connect_scan.c.obj
                0x000000001fff90fa                Connect_debug
 *fill*         0x000000001fff90fb        0x1 
 .bss.Connect_cableChecksSlave
                0x000000001fff90fc        0x4 CMakeFiles/kiibohd.elf.dir/Scan/UARTConnect/connect_scan.c.obj
                0x000000001fff90fc                Connect_cableChecksSlave
 .bss.Connect_override
                0x000000001fff9100        0x1 CMakeFiles/kiibohd.elf.dir/Scan/UARTConnect/connect_scan.c.obj
                0x000000001fff9100                Connect_override
 .bss.Connect_master
                0x000000001fff9101        0x1 CMakeFiles/kiibohd.elf.dir/Scan/UARTConnect/connect_scan.c.obj
                0x000000001fff9101                Connect_master
 .bss.Scan_scanCount
                0x000000001fff9102        0x2 CMakeFiles/kiibohd.elf.dir/Scan/Infinity_Ergodox/scan_loop.c.obj
                0x000000001fff9102                Scan_scanCount
 .bss.macroPauseMode
                0x000000001fff9104        0x1 CMakeFiles/kiibohd.elf.dir/Macro/PartialMap/macro.c.obj
                0x000000001fff9104                macroPauseMode
 *fill*         0x000000001fff9105        0x1 
 .bss.macroStepCounter
                0x000000001fff9106        0x2 CMakeFiles/kiibohd.elf.dir/Macro/PartialMap/macro.c.obj
                0x000000001fff9106                macroStepCounter
 .bss.macroTriggerListBufferSize
                0x000000001fff9108        0x1 CMakeFiles/kiibohd.elf.dir/Macro/PartialMap/macro.c.obj
                0x000000001fff9108                macroTriggerListBufferSize
 *fill*         0x000000001fff9109        0x1 
 .bss.macroLayerIndexStackSize
                0x000000001fff910a        0x2 CMakeFiles/kiibohd.elf.dir/Macro/PartialMap/macro.c.obj
                0x000000001fff910a                macroLayerIndexStackSize
 .bss.macroLayerIndexStack
                0x000000001fff910c        0x8 CMakeFiles/kiibohd.elf.dir/Macro/PartialMap/macro.c.obj
                0x000000001fff910c                macroLayerIndexStack
 .bss.macroInterconnectCacheSize
                0x000000001fff9114        0x1 CMakeFiles/kiibohd.elf.dir/Macro/PartialMap/macro.c.obj
                0x000000001fff9114                macroInterconnectCacheSize
 .bss.layerDebugMode
                0x000000001fff9115        0x1 CMakeFiles/kiibohd.elf.dir/Macro/PartialMap/macro.c.obj
                0x000000001fff9115                layerDebugMode
 .bss.macroDebugMode
                0x000000001fff9116        0x1 CMakeFiles/kiibohd.elf.dir/Macro/PartialMap/macro.c.obj
                0x000000001fff9116                macroDebugMode
 *fill*         0x000000001fff9117        0x1 
 .bss.macroTriggerMacroPendingListSize
                0x000000001fff9118        0x2 CMakeFiles/kiibohd.elf.dir/Macro/PartialMap/trigger.c.obj
                0x000000001fff9118                macroTriggerMacroPendingListSize
 .bss.macroTriggerMacroPendingList
                0x000000001fff911a       0xbe CMakeFiles/kiibohd.elf.dir/Macro/PartialMap/trigger.c.obj
                0x000000001fff911a                macroTriggerMacroPendingList
 .bss.USBMouse_Buttons
                0x000000001fff91d8        0x2 CMakeFiles/kiibohd.elf.dir/Output/pjrcUSB/output_com.c.obj
                0x000000001fff91d8                USBMouse_Buttons
 .bss.USBKeys_Modifiers
                0x000000001fff91da        0x1 CMakeFiles/kiibohd.elf.dir/Output/pjrcUSB/output_com.c.obj
                0x000000001fff91da                USBKeys_Modifiers
 .bss.USBKeys_Changed
                0x000000001fff91db        0x1 CMakeFiles/kiibohd.elf.dir/Output/pjrcUSB/output_com.c.obj
                0x000000001fff91db                USBKeys_Changed
 .bss.Output_USBCurrent_Available
                0x000000001fff91dc        0x2 CMakeFiles/kiibohd.elf.dir/Output/pjrcUSB/output_com.c.obj
                0x000000001fff91dc                Output_USBCurrent_Available
 .bss.USBMouse_Changed
                0x000000001fff91de        0x1 CMakeFiles/kiibohd.elf.dir/Output/pjrcUSB/output_com.c.obj
                0x000000001fff91de                USBMouse_Changed
 *fill*         0x000000001fff91df        0x1 
 .bss.Output_ExtCurrent_Available
                0x000000001fff91e0        0x2 CMakeFiles/kiibohd.elf.dir/Output/pjrcUSB/output_com.c.obj
                0x000000001fff91e0                Output_ExtCurrent_Available
 .bss.USBMouse_Relative_x
                0x000000001fff91e2        0x2 CMakeFiles/kiibohd.elf.dir/Output/pjrcUSB/output_com.c.obj
                0x000000001fff91e2                USBMouse_Relative_x
 .bss.USBMouse_Relative_y
                0x000000001fff91e4        0x2 CMakeFiles/kiibohd.elf.dir/Output/pjrcUSB/output_com.c.obj
                0x000000001fff91e4                USBMouse_Relative_y
 .bss.USBKeys_Idle_Config
                0x000000001fff91e6        0x1 CMakeFiles/kiibohd.elf.dir/Output/pjrcUSB/output_com.c.obj
                0x000000001fff91e6                USBKeys_Idle_Config
 .bss.USBKeys_LEDs
                0x000000001fff91e7        0x1 CMakeFiles/kiibohd.elf.dir/Output/pjrcUSB/output_com.c.obj
                0x000000001fff91e7                USBKeys_LEDs
 .bss.USBKeys_Idle_Expiry
                0x000000001fff91e8        0x4 CMakeFiles/kiibohd.elf.dir/Output/pjrcUSB/output_com.c.obj
                0x000000001fff91e8                USBKeys_Idle_Expiry
 .bss.Output_Available
                0x000000001fff91ec        0x1 CMakeFiles/kiibohd.elf.dir/Output/pjrcUSB/output_com.c.obj
                0x000000001fff91ec                Output_Available
 .bss.Output_DebugMode
                0x000000001fff91ed        0x1 CMakeFiles/kiibohd.elf.dir/Output/pjrcUSB/output_com.c.obj
                0x000000001fff91ed                Output_DebugMode
 .bss.USBKeys_ModifiersCLI
                0x000000001fff91ee        0x1 CMakeFiles/kiibohd.elf.dir/Output/pjrcUSB/output_com.c.obj
                0x000000001fff91ee                USBKeys_ModifiersCLI
 .bss.usb_debug_descriptor
                0x000000001fff91ef        0x1 CMakeFiles/kiibohd.elf.dir/Output/pjrcUSB/arm/usb_desc.c.obj
 .bss.device_qualifier_descriptor
                0x000000001fff91f0        0x1 CMakeFiles/kiibohd.elf.dir/Output/pjrcUSB/arm/usb_desc.c.obj
 *fill*         0x000000001fff91f1        0x3 
 .bss.ep0_tx_ptr
                0x000000001fff91f4        0x4 CMakeFiles/kiibohd.elf.dir/Output/pjrcUSB/arm/usb_dev.c.obj
 .bss.rx_last   0x000000001fff91f8       0x28 CMakeFiles/kiibohd.elf.dir/Output/pjrcUSB/arm/usb_dev.c.obj
 .bss.tx_state  0x000000001fff9220        0xa CMakeFiles/kiibohd.elf.dir/Output/pjrcUSB/arm/usb_dev.c.obj
 .bss.power_neg_delay
                0x000000001fff922a        0x1 CMakeFiles/kiibohd.elf.dir/Output/pjrcUSB/arm/usb_dev.c.obj
 *fill*         0x000000001fff922b        0x1 
 .bss.ep0_tx_len
                0x000000001fff922c        0x2 CMakeFiles/kiibohd.elf.dir/Output/pjrcUSB/arm/usb_dev.c.obj
 *fill*         0x000000001fff922e        0x2 
 .bss.ep0_rx0_buf
                0x000000001fff9230       0x40 CMakeFiles/kiibohd.elf.dir/Output/pjrcUSB/arm/usb_dev.c.obj
 .bss.rx_first  0x000000001fff9270       0x28 CMakeFiles/kiibohd.elf.dir/Output/pjrcUSB/arm/usb_dev.c.obj
 .bss.ep0_tx_bdt_bank
                0x000000001fff9298        0x1 CMakeFiles/kiibohd.elf.dir/Output/pjrcUSB/arm/usb_dev.c.obj
 .bss.usb_reboot_timer
                0x000000001fff9299        0x1 CMakeFiles/kiibohd.elf.dir/Output/pjrcUSB/arm/usb_dev.c.obj
                0x000000001fff9299                usb_reboot_timer
 *fill*         0x000000001fff929a        0x2 
 .bss.ep0_rx1_buf
                0x000000001fff929c       0x40 CMakeFiles/kiibohd.elf.dir/Output/pjrcUSB/arm/usb_dev.c.obj
 .bss.tx_first  0x000000001fff92dc       0x28 CMakeFiles/kiibohd.elf.dir/Output/pjrcUSB/arm/usb_dev.c.obj
 .bss.tx_last   0x000000001fff9304       0x28 CMakeFiles/kiibohd.elf.dir/Output/pjrcUSB/arm/usb_dev.c.obj
 .bss.setup     0x000000001fff932c        0x8 CMakeFiles/kiibohd.elf.dir/Output/pjrcUSB/arm/usb_dev.c.obj
 .bss.power_neg_time
                0x000000001fff9334        0x4 CMakeFiles/kiibohd.elf.dir/Output/pjrcUSB/arm/usb_dev.c.obj
 .bss.usb_dev_sleep
                0x000000001fff9338        0x1 CMakeFiles/kiibohd.elf.dir/Output/pjrcUSB/arm/usb_dev.c.obj
 .bss.usb_rx_memory_needed
                0x000000001fff9339        0x1 CMakeFiles/kiibohd.elf.dir/Output/pjrcUSB/arm/usb_dev.c.obj
                0x000000001fff9339                usb_rx_memory_needed
 .bss.reply_buffer
                0x000000001fff933a        0x8 CMakeFiles/kiibohd.elf.dir/Output/pjrcUSB/arm/usb_dev.c.obj
 .bss.usb_configuration
                0x000000001fff9342        0x1 CMakeFiles/kiibohd.elf.dir/Output/pjrcUSB/arm/usb_dev.c.obj
                0x000000001fff9342                usb_configuration
 .bss.ep0_tx_data_toggle
                0x000000001fff9343        0x1 CMakeFiles/kiibohd.elf.dir/Output/pjrcUSB/arm/usb_dev.c.obj
 .bss.transmit_previous_timeout
                0x000000001fff9344        0x1 CMakeFiles/kiibohd.elf.dir/Output/pjrcUSB/arm/usb_keyboard.c.obj
 .bss.transmit_previous_timeout
                0x000000001fff9345        0x1 CMakeFiles/kiibohd.elf.dir/Output/pjrcUSB/arm/usb_mouse.c.obj
 .bss.usb_cdc_transmit_flush_timer
                0x000000001fff9346        0x1 CMakeFiles/kiibohd.elf.dir/Output/pjrcUSB/arm/usb_serial.c.obj
                0x000000001fff9346                usb_cdc_transmit_flush_timer
 .bss.tx_noautoflush
                0x000000001fff9347        0x1 CMakeFiles/kiibohd.elf.dir/Output/pjrcUSB/arm/usb_serial.c.obj
 .bss.tx_packet
                0x000000001fff9348        0x4 CMakeFiles/kiibohd.elf.dir/Output/pjrcUSB/arm/usb_serial.c.obj
 .bss.transmit_previous_timeout
                0x000000001fff934c        0x1 CMakeFiles/kiibohd.elf.dir/Output/pjrcUSB/arm/usb_serial.c.obj
 *fill*         0x000000001fff934d        0x3 
 .bss.rx_packet
                0x000000001fff9350        0x4 CMakeFiles/kiibohd.elf.dir/Output/pjrcUSB/arm/usb_serial.c.obj
 .bss.usb_cdc_line_rtsdtr
                0x000000001fff9354        0x1 CMakeFiles/kiibohd.elf.dir/Output/pjrcUSB/arm/usb_serial.c.obj
                0x000000001fff9354                usb_cdc_line_rtsdtr
 *(COMMON)
 *fill*         0x000000001fff9355        0x3 
 COMMON         0x000000001fff9358      0x4a9 CMakeFiles/kiibohd.elf.dir/main.c.obj
                0x000000001fff9358                CLIHexDebugMode
                0x000000001fff9359                CLIHistoryCurrent
                0x000000001fff935a                CLILEDState
                0x000000001fff935b                CLIDictionariesUsed
                0x000000001fff935c                CLIHistoryBuffer
                0x000000001fff9744                CLILineBuffer
                0x000000001fff97a9                CLIHistoryHead
                0x000000001fff97ac                CLIDict
                0x000000001fff97d4                CLIHistoryTail
                0x000000001fff97d8                CLIDictNames
                0x000000001fff9800                CLILineBufferCurrent
 COMMON         0x000000001fff9801      0x2ea CMakeFiles/kiibohd.elf.dir/Scan/ISSILed/led_scan.c.obj
                0x000000001fff9801                I2C_RxBufferPtr
                0x000000001fff992d                LED_pageBuffer
                0x000000001fff99bf                I2C_TxBufferPtr
 COMMON         0x000000001fff9aeb      0x13b CMakeFiles/kiibohd.elf.dir/Scan/MatrixARM/matrix_scan.c.obj
                0x000000001fff9aeb                Matrix_scanArray
 COMMON         0x000000001fff9c26      0x23a CMakeFiles/kiibohd.elf.dir/Scan/UARTConnect/connect_scan.c.obj
                0x000000001fff9c26                uart_tx_buf
                0x000000001fff9d2c                Connect_receive_RemoteCapabilityBuffer
                0x000000001fff9d32                uart_tx_status
                0x000000001fff9d36                Connect_receive_RemoteCapabilityArgs
                0x000000001fff9d4f                Connect_receive_ScanCodeDeviceId
                0x000000001fff9d50                uart_rx_status
                0x000000001fff9d58                uart_rx_buf
                0x000000001fff9e5c                Connect_receive_ScanCodeBuffer
                0x000000001fff9e5f                Connect_receive_ScanCodeBufferPos
 COMMON         0x000000001fff9e60      0x449 CMakeFiles/kiibohd.elf.dir/Macro/PartialMap/macro.c.obj
                0x000000001fff9e60                Macro_rotationLayer
                0x000000001fff9e62                macroTriggerListBuffer
                0x000000001fff9f6d                ResultMacroRecordList
                0x000000001fffa084                LayerState
                0x000000001fffa087                macroTriggerListLayerCache
                0x000000001fffa0e0                macroInterconnectCache
                0x000000001fffa1eb                TriggerMacroRecordList
 *fill*         0x000000001fffa2a9        0x3 
 COMMON         0x000000001fffa2ac      0x2ec CMakeFiles/kiibohd.elf.dir/Macro/PartialMap/result.c.obj
                0x000000001fffa2ac                macroResultMacroPendingList
 COMMON         0x000000001fffa598       0x4a CMakeFiles/kiibohd.elf.dir/Output/pjrcUSB/output_com.c.obj
                0x000000001fffa598                USBKeys_SentCLI
                0x000000001fffa59c                USBInit_TimeEnd
                0x000000001fffa5a0                USBKeys_SysCtrl
                0x000000001fffa5a2                USBInit_Ticks
                0x000000001fffa5a4                USBKeys_Keys
                0x000000001fffa5bf                USBKeys_Sent
                0x000000001fffa5c0                USBKeys_KeysCLI
                0x000000001fffa5dc                USBInit_TimeStart
                0x000000001fffa5e0                USBKeys_ConsCtrl
 COMMON         0x000000001fffa5e2       0x14 CMakeFiles/kiibohd.elf.dir/Output/pjrcUSB/arm/usb_dev.c.obj
                0x000000001fffa5e2                usb_rx_byte_count_data
                0x000000001fffa5f8                . = ALIGN (0x4)
 *fill*         0x000000001fffa5f6        0x2 
                0x000000001fffa5f8                _ebss = .
                0x000000001fffa5f8                __bss_end = .
                0x0000000020008000                _estack = (ORIGIN (RAM) + LENGTH (RAM))
OUTPUT(kiibohd.elf elf32-littlearm)

.debug_info     0x0000000000000000    0x11498
 .debug_info    0x0000000000000000      0x2c5 CMakeFiles/kiibohd.elf.dir/main.c.obj
 .debug_info    0x00000000000002c5      0x633 CMakeFiles/kiibohd.elf.dir/Lib/mk20dx.c.obj
 .debug_info    0x00000000000008f8      0x141 CMakeFiles/kiibohd.elf.dir/Lib/delay.c.obj
 .debug_info    0x0000000000000a39     0x1a42 CMakeFiles/kiibohd.elf.dir/Scan/ISSILed/led_scan.c.obj
 .debug_info    0x000000000000247b      0xdae CMakeFiles/kiibohd.elf.dir/Scan/MatrixARM/matrix_scan.c.obj
 .debug_info    0x0000000000003229     0x12df CMakeFiles/kiibohd.elf.dir/Scan/STLcd/lcd_scan.c.obj
 .debug_info    0x0000000000004508     0x250c CMakeFiles/kiibohd.elf.dir/Scan/UARTConnect/connect_scan.c.obj
 .debug_info    0x0000000000006a14      0x41c CMakeFiles/kiibohd.elf.dir/Scan/Infinity_Ergodox/scan_loop.c.obj
 .debug_info    0x0000000000006e30     0x4981 CMakeFiles/kiibohd.elf.dir/Macro/PartialMap/macro.c.obj
 .debug_info    0x000000000000b7b1      0x49b CMakeFiles/kiibohd.elf.dir/Macro/PartialMap/result.c.obj
 .debug_info    0x000000000000bc4c      0x7ff CMakeFiles/kiibohd.elf.dir/Macro/PartialMap/trigger.c.obj
 .debug_info    0x000000000000c44b     0x12f2 CMakeFiles/kiibohd.elf.dir/Output/pjrcUSB/output_com.c.obj
 .debug_info    0x000000000000d73d      0x397 CMakeFiles/kiibohd.elf.dir/Output/pjrcUSB/arm/usb_desc.c.obj
 .debug_info    0x000000000000dad4      0xdd2 CMakeFiles/kiibohd.elf.dir/Output/pjrcUSB/arm/usb_dev.c.obj
 .debug_info    0x000000000000e8a6      0x670 CMakeFiles/kiibohd.elf.dir/Output/pjrcUSB/arm/usb_keyboard.c.obj
 .debug_info    0x000000000000ef16      0x239 CMakeFiles/kiibohd.elf.dir/Output/pjrcUSB/arm/usb_mem.c.obj
 .debug_info    0x000000000000f14f      0x4e6 CMakeFiles/kiibohd.elf.dir/Output/pjrcUSB/arm/usb_mouse.c.obj
 .debug_info    0x000000000000f635      0x5e7 CMakeFiles/kiibohd.elf.dir/Output/pjrcUSB/arm/usb_serial.c.obj
 .debug_info    0x000000000000fc1c      0xff6 CMakeFiles/kiibohd.elf.dir/Debug/cli/cli.c.obj
 .debug_info    0x0000000000010c12       0xce CMakeFiles/kiibohd.elf.dir/Debug/led/led.c.obj
 .debug_info    0x0000000000010ce0      0x7b8 CMakeFiles/kiibohd.elf.dir/Debug/print/print.c.obj

.debug_abbrev   0x0000000000000000     0x2df2
 .debug_abbrev  0x0000000000000000       0xd2 CMakeFiles/kiibohd.elf.dir/main.c.obj
 .debug_abbrev  0x00000000000000d2      0x213 CMakeFiles/kiibohd.elf.dir/Lib/mk20dx.c.obj
 .debug_abbrev  0x00000000000002e5       0xd6 CMakeFiles/kiibohd.elf.dir/Lib/delay.c.obj
 .debug_abbrev  0x00000000000003bb      0x3a9 CMakeFiles/kiibohd.elf.dir/Scan/ISSILed/led_scan.c.obj
 .debug_abbrev  0x0000000000000764      0x29e CMakeFiles/kiibohd.elf.dir/Scan/MatrixARM/matrix_scan.c.obj
 .debug_abbrev  0x0000000000000a02      0x3cf CMakeFiles/kiibohd.elf.dir/Scan/STLcd/lcd_scan.c.obj
 .debug_abbrev  0x0000000000000dd1      0x391 CMakeFiles/kiibohd.elf.dir/Scan/UARTConnect/connect_scan.c.obj
 .debug_abbrev  0x0000000000001162      0x15e CMakeFiles/kiibohd.elf.dir/Scan/Infinity_Ergodox/scan_loop.c.obj
 .debug_abbrev  0x00000000000012c0      0x389 CMakeFiles/kiibohd.elf.dir/Macro/PartialMap/macro.c.obj
 .debug_abbrev  0x0000000000001649      0x1df CMakeFiles/kiibohd.elf.dir/Macro/PartialMap/result.c.obj
 .debug_abbrev  0x0000000000001828      0x289 CMakeFiles/kiibohd.elf.dir/Macro/PartialMap/trigger.c.obj
 .debug_abbrev  0x0000000000001ab1      0x2f1 CMakeFiles/kiibohd.elf.dir/Output/pjrcUSB/output_com.c.obj
 .debug_abbrev  0x0000000000001da2       0xd1 CMakeFiles/kiibohd.elf.dir/Output/pjrcUSB/arm/usb_desc.c.obj
 .debug_abbrev  0x0000000000001e73      0x3bb CMakeFiles/kiibohd.elf.dir/Output/pjrcUSB/arm/usb_dev.c.obj
 .debug_abbrev  0x000000000000222e      0x168 CMakeFiles/kiibohd.elf.dir/Output/pjrcUSB/arm/usb_keyboard.c.obj
 .debug_abbrev  0x0000000000002396      0x15c CMakeFiles/kiibohd.elf.dir/Output/pjrcUSB/arm/usb_mem.c.obj
 .debug_abbrev  0x00000000000024f2      0x1b0 CMakeFiles/kiibohd.elf.dir/Output/pjrcUSB/arm/usb_mouse.c.obj
 .debug_abbrev  0x00000000000026a2      0x21f CMakeFiles/kiibohd.elf.dir/Output/pjrcUSB/arm/usb_serial.c.obj
 .debug_abbrev  0x00000000000028c1      0x2d6 CMakeFiles/kiibohd.elf.dir/Debug/cli/cli.c.obj
 .debug_abbrev  0x0000000000002b97       0x77 CMakeFiles/kiibohd.elf.dir/Debug/led/led.c.obj
 .debug_abbrev  0x0000000000002c0e      0x1e4 CMakeFiles/kiibohd.elf.dir/Debug/print/print.c.obj

.debug_aranges  0x0000000000000000      0x928
 .debug_aranges
                0x0000000000000000       0x20 CMakeFiles/kiibohd.elf.dir/main.c.obj
 .debug_aranges
                0x0000000000000020       0x88 CMakeFiles/kiibohd.elf.dir/Lib/mk20dx.c.obj
 .debug_aranges
                0x00000000000000a8       0x30 CMakeFiles/kiibohd.elf.dir/Lib/delay.c.obj
 .debug_aranges
                0x00000000000000d8       0xc8 CMakeFiles/kiibohd.elf.dir/Scan/ISSILed/led_scan.c.obj
 .debug_aranges
                0x00000000000001a0       0x58 CMakeFiles/kiibohd.elf.dir/Scan/MatrixARM/matrix_scan.c.obj
 .debug_aranges
                0x00000000000001f8       0x98 CMakeFiles/kiibohd.elf.dir/Scan/STLcd/lcd_scan.c.obj
 .debug_aranges
                0x0000000000000290      0x100 CMakeFiles/kiibohd.elf.dir/Scan/UARTConnect/connect_scan.c.obj
 .debug_aranges
                0x0000000000000390       0x40 CMakeFiles/kiibohd.elf.dir/Scan/Infinity_Ergodox/scan_loop.c.obj
 .debug_aranges
                0x00000000000003d0      0x100 CMakeFiles/kiibohd.elf.dir/Macro/PartialMap/macro.c.obj
 .debug_aranges
                0x00000000000004d0       0x38 CMakeFiles/kiibohd.elf.dir/Macro/PartialMap/result.c.obj
 .debug_aranges
                0x0000000000000508       0x40 CMakeFiles/kiibohd.elf.dir/Macro/PartialMap/trigger.c.obj
 .debug_aranges
                0x0000000000000548       0xf8 CMakeFiles/kiibohd.elf.dir/Output/pjrcUSB/output_com.c.obj
 .debug_aranges
                0x0000000000000640       0x20 CMakeFiles/kiibohd.elf.dir/Output/pjrcUSB/arm/usb_desc.c.obj
 .debug_aranges
                0x0000000000000660       0x80 CMakeFiles/kiibohd.elf.dir/Output/pjrcUSB/arm/usb_dev.c.obj
 .debug_aranges
                0x00000000000006e0       0x20 CMakeFiles/kiibohd.elf.dir/Output/pjrcUSB/arm/usb_keyboard.c.obj
 .debug_aranges
                0x0000000000000700       0x28 CMakeFiles/kiibohd.elf.dir/Output/pjrcUSB/arm/usb_mem.c.obj
 .debug_aranges
                0x0000000000000728       0x38 CMakeFiles/kiibohd.elf.dir/Output/pjrcUSB/arm/usb_mouse.c.obj
 .debug_aranges
                0x0000000000000760       0x60 CMakeFiles/kiibohd.elf.dir/Output/pjrcUSB/arm/usb_serial.c.obj
 .debug_aranges
                0x00000000000007c0       0xa0 CMakeFiles/kiibohd.elf.dir/Debug/cli/cli.c.obj
 .debug_aranges
                0x0000000000000860       0x28 CMakeFiles/kiibohd.elf.dir/Debug/led/led.c.obj
 .debug_aranges
                0x0000000000000888       0xa0 CMakeFiles/kiibohd.elf.dir/Debug/print/print.c.obj

.debug_ranges   0x0000000000000000      0xfd0
 .debug_ranges  0x0000000000000000       0x10 CMakeFiles/kiibohd.elf.dir/main.c.obj
 .debug_ranges  0x0000000000000010       0x78 CMakeFiles/kiibohd.elf.dir/Lib/mk20dx.c.obj
 .debug_ranges  0x0000000000000088       0x20 CMakeFiles/kiibohd.elf.dir/Lib/delay.c.obj
 .debug_ranges  0x00000000000000a8      0x108 CMakeFiles/kiibohd.elf.dir/Scan/ISSILed/led_scan.c.obj
 .debug_ranges  0x00000000000001b0       0x98 CMakeFiles/kiibohd.elf.dir/Scan/MatrixARM/matrix_scan.c.obj
 .debug_ranges  0x0000000000000248      0x100 CMakeFiles/kiibohd.elf.dir/Scan/STLcd/lcd_scan.c.obj
 .debug_ranges  0x0000000000000348      0x1f0 CMakeFiles/kiibohd.elf.dir/Scan/UARTConnect/connect_scan.c.obj
 .debug_ranges  0x0000000000000538       0x30 CMakeFiles/kiibohd.elf.dir/Scan/Infinity_Ergodox/scan_loop.c.obj
 .debug_ranges  0x0000000000000568      0x320 CMakeFiles/kiibohd.elf.dir/Macro/PartialMap/macro.c.obj
 .debug_ranges  0x0000000000000888       0x80 CMakeFiles/kiibohd.elf.dir/Macro/PartialMap/result.c.obj
 .debug_ranges  0x0000000000000908      0x170 CMakeFiles/kiibohd.elf.dir/Macro/PartialMap/trigger.c.obj
 .debug_ranges  0x0000000000000a78      0x120 CMakeFiles/kiibohd.elf.dir/Output/pjrcUSB/output_com.c.obj
 .debug_ranges  0x0000000000000b98       0x10 CMakeFiles/kiibohd.elf.dir/Output/pjrcUSB/arm/usb_desc.c.obj
 .debug_ranges  0x0000000000000ba8       0xd0 CMakeFiles/kiibohd.elf.dir/Output/pjrcUSB/arm/usb_dev.c.obj
 .debug_ranges  0x0000000000000c78       0x28 CMakeFiles/kiibohd.elf.dir/Output/pjrcUSB/arm/usb_keyboard.c.obj
 .debug_ranges  0x0000000000000ca0       0x18 CMakeFiles/kiibohd.elf.dir/Output/pjrcUSB/arm/usb_mem.c.obj
 .debug_ranges  0x0000000000000cb8       0x28 CMakeFiles/kiibohd.elf.dir/Output/pjrcUSB/arm/usb_mouse.c.obj
 .debug_ranges  0x0000000000000ce0       0x68 CMakeFiles/kiibohd.elf.dir/Output/pjrcUSB/arm/usb_serial.c.obj
 .debug_ranges  0x0000000000000d48      0x1a0 CMakeFiles/kiibohd.elf.dir/Debug/cli/cli.c.obj
 .debug_ranges  0x0000000000000ee8       0x18 CMakeFiles/kiibohd.elf.dir/Debug/led/led.c.obj
 .debug_ranges  0x0000000000000f00       0xd0 CMakeFiles/kiibohd.elf.dir/Debug/print/print.c.obj

.debug_macro    0x0000000000000000     0xa811
 .debug_macro   0x0000000000000000       0xae CMakeFiles/kiibohd.elf.dir/main.c.obj
 .debug_macro   0x00000000000000ae      0x886 CMakeFiles/kiibohd.elf.dir/main.c.obj
 .debug_macro   0x0000000000000934       0x16 CMakeFiles/kiibohd.elf.dir/main.c.obj
 .debug_macro   0x000000000000094a       0x22 CMakeFiles/kiibohd.elf.dir/main.c.obj
 .debug_macro   0x000000000000096c       0x87 CMakeFiles/kiibohd.elf.dir/main.c.obj
 .debug_macro   0x00000000000009f3       0x44 CMakeFiles/kiibohd.elf.dir/main.c.obj
 .debug_macro   0x0000000000000a37       0xfd CMakeFiles/kiibohd.elf.dir/main.c.obj
 .debug_macro   0x0000000000000b34       0x5e CMakeFiles/kiibohd.elf.dir/main.c.obj
 .debug_macro   0x0000000000000b92      0x1df CMakeFiles/kiibohd.elf.dir/main.c.obj
 .debug_macro   0x0000000000000d71     0x301e CMakeFiles/kiibohd.elf.dir/main.c.obj
 .debug_macro   0x0000000000003d8f       0x10 CMakeFiles/kiibohd.elf.dir/main.c.obj
 .debug_macro   0x0000000000003d9f       0x7c CMakeFiles/kiibohd.elf.dir/main.c.obj
 .debug_macro   0x0000000000003e1b       0x10 CMakeFiles/kiibohd.elf.dir/main.c.obj
 .debug_macro   0x0000000000003e2b       0x3a CMakeFiles/kiibohd.elf.dir/main.c.obj
 .debug_macro   0x0000000000003e65       0x9a CMakeFiles/kiibohd.elf.dir/main.c.obj
 .debug_macro   0x0000000000003eff       0x87 CMakeFiles/kiibohd.elf.dir/Lib/mk20dx.c.obj
 .debug_macro   0x0000000000003f86     0x3030 CMakeFiles/kiibohd.elf.dir/Lib/mk20dx.c.obj
 .debug_macro   0x0000000000006fb6       0x75 CMakeFiles/kiibohd.elf.dir/Lib/delay.c.obj
 .debug_macro   0x000000000000702b       0x10 CMakeFiles/kiibohd.elf.dir/Lib/delay.c.obj
 .debug_macro   0x000000000000703b      0x104 CMakeFiles/kiibohd.elf.dir/Scan/ISSILed/led_scan.c.obj
 .debug_macro   0x000000000000713f       0x7c CMakeFiles/kiibohd.elf.dir/Scan/ISSILed/led_scan.c.obj
 .debug_macro   0x00000000000071bb      0x18a CMakeFiles/kiibohd.elf.dir/Scan/ISSILed/led_scan.c.obj
 .debug_macro   0x0000000000007345     0x1217 CMakeFiles/kiibohd.elf.dir/Scan/ISSILed/led_scan.c.obj
 .debug_macro   0x000000000000855c       0x57 CMakeFiles/kiibohd.elf.dir/Scan/ISSILed/led_scan.c.obj
 .debug_macro   0x00000000000085b3       0xd7 CMakeFiles/kiibohd.elf.dir/Scan/MatrixARM/matrix_scan.c.obj
 .debug_macro   0x000000000000868a       0x1c CMakeFiles/kiibohd.elf.dir/Scan/MatrixARM/matrix_scan.c.obj
 .debug_macro   0x00000000000086a6       0xf6 CMakeFiles/kiibohd.elf.dir/Scan/STLcd/lcd_scan.c.obj
 .debug_macro   0x000000000000879c      0x118 CMakeFiles/kiibohd.elf.dir/Scan/UARTConnect/connect_scan.c.obj
 .debug_macro   0x00000000000088b4       0xec CMakeFiles/kiibohd.elf.dir/Scan/Infinity_Ergodox/scan_loop.c.obj
 .debug_macro   0x00000000000089a0       0xed CMakeFiles/kiibohd.elf.dir/Macro/PartialMap/macro.c.obj
 .debug_macro   0x0000000000008a8d       0xcd CMakeFiles/kiibohd.elf.dir/Macro/PartialMap/result.c.obj
 .debug_macro   0x0000000000008b5a       0xcd CMakeFiles/kiibohd.elf.dir/Macro/PartialMap/trigger.c.obj
 .debug_macro   0x0000000000008c27      0x14d CMakeFiles/kiibohd.elf.dir/Output/pjrcUSB/output_com.c.obj
 .debug_macro   0x0000000000008d74      0x174 CMakeFiles/kiibohd.elf.dir/Output/pjrcUSB/output_com.c.obj
 .debug_macro   0x0000000000008ee8      0x202 CMakeFiles/kiibohd.elf.dir/Output/pjrcUSB/output_com.c.obj
 .debug_macro   0x00000000000090ea       0x52 CMakeFiles/kiibohd.elf.dir/Output/pjrcUSB/output_com.c.obj
 .debug_macro   0x000000000000913c       0x35 CMakeFiles/kiibohd.elf.dir/Output/pjrcUSB/output_com.c.obj
 .debug_macro   0x0000000000009171       0x35 CMakeFiles/kiibohd.elf.dir/Output/pjrcUSB/output_com.c.obj
 .debug_macro   0x00000000000091a6      0x45d CMakeFiles/kiibohd.elf.dir/Output/pjrcUSB/output_com.c.obj
 .debug_macro   0x0000000000009603       0x22 CMakeFiles/kiibohd.elf.dir/Output/pjrcUSB/output_com.c.obj
 .debug_macro   0x0000000000009625       0xfe CMakeFiles/kiibohd.elf.dir/Output/pjrcUSB/arm/usb_desc.c.obj
 .debug_macro   0x0000000000009723      0x1e9 CMakeFiles/kiibohd.elf.dir/Output/pjrcUSB/arm/usb_dev.c.obj
 .debug_macro   0x000000000000990c      0x19c CMakeFiles/kiibohd.elf.dir/Output/pjrcUSB/arm/usb_keyboard.c.obj
 .debug_macro   0x0000000000009aa8       0x4c CMakeFiles/kiibohd.elf.dir/Output/pjrcUSB/arm/usb_keyboard.c.obj
 .debug_macro   0x0000000000009af4       0x8d CMakeFiles/kiibohd.elf.dir/Output/pjrcUSB/arm/usb_keyboard.c.obj
 .debug_macro   0x0000000000009b81       0x9c CMakeFiles/kiibohd.elf.dir/Output/pjrcUSB/arm/usb_keyboard.c.obj
 .debug_macro   0x0000000000009c1d       0x4a CMakeFiles/kiibohd.elf.dir/Output/pjrcUSB/arm/usb_keyboard.c.obj
 .debug_macro   0x0000000000009c67       0x52 CMakeFiles/kiibohd.elf.dir/Output/pjrcUSB/arm/usb_keyboard.c.obj
 .debug_macro   0x0000000000009cb9       0x1f CMakeFiles/kiibohd.elf.dir/Output/pjrcUSB/arm/usb_keyboard.c.obj
 .debug_macro   0x0000000000009cd8       0x43 CMakeFiles/kiibohd.elf.dir/Output/pjrcUSB/arm/usb_keyboard.c.obj
 .debug_macro   0x0000000000009d1b       0x20 CMakeFiles/kiibohd.elf.dir/Output/pjrcUSB/arm/usb_keyboard.c.obj
 .debug_macro   0x0000000000009d3b      0x187 CMakeFiles/kiibohd.elf.dir/Output/pjrcUSB/arm/usb_keyboard.c.obj
 .debug_macro   0x0000000000009ec2      0x30d CMakeFiles/kiibohd.elf.dir/Output/pjrcUSB/arm/usb_keyboard.c.obj
 .debug_macro   0x000000000000a1cf       0x10 CMakeFiles/kiibohd.elf.dir/Output/pjrcUSB/arm/usb_keyboard.c.obj
 .debug_macro   0x000000000000a1df       0x10 CMakeFiles/kiibohd.elf.dir/Output/pjrcUSB/arm/usb_keyboard.c.obj
 .debug_macro   0x000000000000a1ef       0x10 CMakeFiles/kiibohd.elf.dir/Output/pjrcUSB/arm/usb_keyboard.c.obj
 .debug_macro   0x000000000000a1ff       0xb0 CMakeFiles/kiibohd.elf.dir/Output/pjrcUSB/arm/usb_mem.c.obj
 .debug_macro   0x000000000000a2af      0x1b4 CMakeFiles/kiibohd.elf.dir/Output/pjrcUSB/arm/usb_mouse.c.obj
 .debug_macro   0x000000000000a463      0x19e CMakeFiles/kiibohd.elf.dir/Output/pjrcUSB/arm/usb_serial.c.obj
 .debug_macro   0x000000000000a601       0xaf CMakeFiles/kiibohd.elf.dir/Debug/cli/cli.c.obj
 .debug_macro   0x000000000000a6b0       0x82 CMakeFiles/kiibohd.elf.dir/Debug/led/led.c.obj
 .debug_macro   0x000000000000a732       0x87 CMakeFiles/kiibohd.elf.dir/Debug/print/print.c.obj
 .debug_macro   0x000000000000a7b9       0x58 CMakeFiles/kiibohd.elf.dir/Debug/print/print.c.obj

.debug_line     0x0000000000000000     0x7f94
 .debug_line    0x0000000000000000      0x4af CMakeFiles/kiibohd.elf.dir/main.c.obj
 .debug_line    0x00000000000004af      0x4d8 CMakeFiles/kiibohd.elf.dir/Lib/mk20dx.c.obj
 .debug_line    0x0000000000000987      0x24c CMakeFiles/kiibohd.elf.dir/Lib/delay.c.obj
 .debug_line    0x0000000000000bd3      0x907 CMakeFiles/kiibohd.elf.dir/Scan/ISSILed/led_scan.c.obj
 .debug_line    0x00000000000014da      0x6d6 CMakeFiles/kiibohd.elf.dir/Scan/MatrixARM/matrix_scan.c.obj
 .debug_line    0x0000000000001bb0      0x7fd CMakeFiles/kiibohd.elf.dir/Scan/STLcd/lcd_scan.c.obj
 .debug_line    0x00000000000023ad      0xb7a CMakeFiles/kiibohd.elf.dir/Scan/UARTConnect/connect_scan.c.obj
 .debug_line    0x0000000000002f27      0x64f CMakeFiles/kiibohd.elf.dir/Scan/Infinity_Ergodox/scan_loop.c.obj
 .debug_line    0x0000000000003576      0xa91 CMakeFiles/kiibohd.elf.dir/Macro/PartialMap/macro.c.obj
 .debug_line    0x0000000000004007      0x4e4 CMakeFiles/kiibohd.elf.dir/Macro/PartialMap/result.c.obj
 .debug_line    0x00000000000044eb      0x5f5 CMakeFiles/kiibohd.elf.dir/Macro/PartialMap/trigger.c.obj
 .debug_line    0x0000000000004ae0      0x937 CMakeFiles/kiibohd.elf.dir/Output/pjrcUSB/output_com.c.obj
 .debug_line    0x0000000000005417      0x2ed CMakeFiles/kiibohd.elf.dir/Output/pjrcUSB/arm/usb_desc.c.obj
 .debug_line    0x0000000000005704      0x77b CMakeFiles/kiibohd.elf.dir/Output/pjrcUSB/arm/usb_dev.c.obj
 .debug_line    0x0000000000005e7f      0x504 CMakeFiles/kiibohd.elf.dir/Output/pjrcUSB/arm/usb_keyboard.c.obj
 .debug_line    0x0000000000006383      0x381 CMakeFiles/kiibohd.elf.dir/Output/pjrcUSB/arm/usb_mem.c.obj
 .debug_line    0x0000000000006704      0x559 CMakeFiles/kiibohd.elf.dir/Output/pjrcUSB/arm/usb_mouse.c.obj
 .debug_line    0x0000000000006c5d      0x536 CMakeFiles/kiibohd.elf.dir/Output/pjrcUSB/arm/usb_serial.c.obj
 .debug_line    0x0000000000007193      0x65d CMakeFiles/kiibohd.elf.dir/Debug/cli/cli.c.obj
 .debug_line    0x00000000000077f0      0x287 CMakeFiles/kiibohd.elf.dir/Debug/led/led.c.obj
 .debug_line    0x0000000000007a77      0x51d CMakeFiles/kiibohd.elf.dir/Debug/print/print.c.obj

.debug_str      0x0000000000000000    0x2569b
 .debug_str     0x0000000000000000    0x144e5 CMakeFiles/kiibohd.elf.dir/main.c.obj
                                      0x14661 (size before relaxing)
 .debug_str     0x00000000000144e5      0x1e5 CMakeFiles/kiibohd.elf.dir/Lib/mk20dx.c.obj
                                      0x144f2 (size before relaxing)
 .debug_str     0x00000000000146ca       0x9c CMakeFiles/kiibohd.elf.dir/Lib/delay.c.obj
                                      0x13c40 (size before relaxing)
 .debug_str     0x0000000000014766     0x750a CMakeFiles/kiibohd.elf.dir/Scan/ISSILed/led_scan.c.obj
                                      0x1bba3 (size before relaxing)
 .debug_str     0x000000000001bc70      0x57b CMakeFiles/kiibohd.elf.dir/Scan/MatrixARM/matrix_scan.c.obj
                                      0x18080 (size before relaxing)
 .debug_str     0x000000000001c1eb      0x3fd CMakeFiles/kiibohd.elf.dir/Scan/STLcd/lcd_scan.c.obj
                                      0x1b9cf (size before relaxing)
 .debug_str     0x000000000001c5e8      0xe44 CMakeFiles/kiibohd.elf.dir/Scan/UARTConnect/connect_scan.c.obj
                                      0x1c260 (size before relaxing)
 .debug_str     0x000000000001d42c       0xb3 CMakeFiles/kiibohd.elf.dir/Scan/Infinity_Ergodox/scan_loop.c.obj
                                      0x1b3da (size before relaxing)
 .debug_str     0x000000000001d4df     0x1af2 CMakeFiles/kiibohd.elf.dir/Macro/PartialMap/macro.c.obj
                                      0x1cf72 (size before relaxing)
 .debug_str     0x000000000001efd1       0xe8 CMakeFiles/kiibohd.elf.dir/Macro/PartialMap/result.c.obj
                                      0x1b1ce (size before relaxing)
 .debug_str     0x000000000001f0b9      0x2cd CMakeFiles/kiibohd.elf.dir/Macro/PartialMap/trigger.c.obj
                                      0x1b4a6 (size before relaxing)
 .debug_str     0x000000000001f386     0x2818 CMakeFiles/kiibohd.elf.dir/Output/pjrcUSB/output_com.c.obj
                                      0x1dc94 (size before relaxing)
 .debug_str     0x0000000000021b9e      0x652 CMakeFiles/kiibohd.elf.dir/Output/pjrcUSB/arm/usb_desc.c.obj
                                       0x7cf9 (size before relaxing)
 .debug_str     0x00000000000221f0      0x60c CMakeFiles/kiibohd.elf.dir/Output/pjrcUSB/arm/usb_dev.c.obj
                                      0x19eb3 (size before relaxing)
 .debug_str     0x00000000000227fc     0x25d0 CMakeFiles/kiibohd.elf.dir/Output/pjrcUSB/arm/usb_keyboard.c.obj
                                      0x1be19 (size before relaxing)
 .debug_str     0x0000000000024dcc       0x81 CMakeFiles/kiibohd.elf.dir/Output/pjrcUSB/arm/usb_mem.c.obj
                                      0x14bf8 (size before relaxing)
 .debug_str     0x0000000000024e4d      0x22d CMakeFiles/kiibohd.elf.dir/Output/pjrcUSB/arm/usb_mouse.c.obj
                                      0x1befd (size before relaxing)
 .debug_str     0x000000000002507a      0x113 CMakeFiles/kiibohd.elf.dir/Output/pjrcUSB/arm/usb_serial.c.obj
                                      0x1b971 (size before relaxing)
 .debug_str     0x000000000002518d      0x2b0 CMakeFiles/kiibohd.elf.dir/Debug/cli/cli.c.obj
                                      0x17d6e (size before relaxing)
 .debug_str     0x000000000002543d       0x47 CMakeFiles/kiibohd.elf.dir/Debug/led/led.c.obj
                                      0x13c10 (size before relaxing)
 .debug_str     0x0000000000025484      0x217 CMakeFiles/kiibohd.elf.dir/Debug/print/print.c.obj
                                       0x3dfb (size before relaxing)

.comment        0x0000000000000000       0x6e
 .comment       0x0000000000000000       0x6e CMakeFiles/kiibohd.elf.dir/main.c.obj
                                         0x6f (size before relaxing)
 .comment       0x000000000000006e       0x6f CMakeFiles/kiibohd.elf.dir/Lib/mk20dx.c.obj
 .comment       0x000000000000006e       0x6f CMakeFiles/kiibohd.elf.dir/Lib/delay.c.obj
 .comment       0x000000000000006e       0x6f CMakeFiles/kiibohd.elf.dir/Scan/ISSILed/led_scan.c.obj
 .comment       0x000000000000006e       0x6f CMakeFiles/kiibohd.elf.dir/Scan/MatrixARM/matrix_scan.c.obj
 .comment       0x000000000000006e       0x6f CMakeFiles/kiibohd.elf.dir/Scan/STLcd/lcd_scan.c.obj
 .comment       0x000000000000006e       0x6f CMakeFiles/kiibohd.elf.dir/Scan/UARTConnect/connect_scan.c.obj
 .comment       0x000000000000006e       0x6f CMakeFiles/kiibohd.elf.dir/Scan/Infinity_Ergodox/scan_loop.c.obj
 .comment       0x000000000000006e       0x6f CMakeFiles/kiibohd.elf.dir/Macro/PartialMap/macro.c.obj
 .comment       0x000000000000006e       0x6f CMakeFiles/kiibohd.elf.dir/Macro/PartialMap/result.c.obj
 .comment       0x000000000000006e       0x6f CMakeFiles/kiibohd.elf.dir/Macro/PartialMap/trigger.c.obj
 .comment       0x000000000000006e       0x6f CMakeFiles/kiibohd.elf.dir/Output/pjrcUSB/output_com.c.obj
 .comment       0x000000000000006e       0x6f CMakeFiles/kiibohd.elf.dir/Output/pjrcUSB/arm/usb_desc.c.obj
 .comment       0x000000000000006e       0x6f CMakeFiles/kiibohd.elf.dir/Output/pjrcUSB/arm/usb_dev.c.obj
 .comment       0x000000000000006e       0x6f CMakeFiles/kiibohd.elf.dir/Output/pjrcUSB/arm/usb_keyboard.c.obj
 .comment       0x000000000000006e       0x6f CMakeFiles/kiibohd.elf.dir/Output/pjrcUSB/arm/usb_mem.c.obj
 .comment       0x000000000000006e       0x6f CMakeFiles/kiibohd.elf.dir/Output/pjrcUSB/arm/usb_mouse.c.obj
 .comment       0x000000000000006e       0x6f CMakeFiles/kiibohd.elf.dir/Output/pjrcUSB/arm/usb_serial.c.obj
 .comment       0x000000000000006e       0x6f CMakeFiles/kiibohd.elf.dir/Debug/cli/cli.c.obj
 .comment       0x000000000000006e       0x6f CMakeFiles/kiibohd.elf.dir/Debug/led/led.c.obj
 .comment       0x000000000000006e       0x6f CMakeFiles/kiibohd.elf.dir/Debug/print/print.c.obj

.ARM.attributes
                0x0000000000000000       0x33
 .ARM.attributes
                0x0000000000000000       0x33 CMakeFiles/kiibohd.elf.dir/main.c.obj
 .ARM.attributes
                0x0000000000000033       0x33 CMakeFiles/kiibohd.elf.dir/Lib/mk20dx.c.obj
 .ARM.attributes
                0x0000000000000066       0x33 CMakeFiles/kiibohd.elf.dir/Lib/delay.c.obj
 .ARM.attributes
                0x0000000000000099       0x33 CMakeFiles/kiibohd.elf.dir/Scan/ISSILed/led_scan.c.obj
 .ARM.attributes
                0x00000000000000cc       0x33 CMakeFiles/kiibohd.elf.dir/Scan/MatrixARM/matrix_scan.c.obj
 .ARM.attributes
                0x00000000000000ff       0x33 CMakeFiles/kiibohd.elf.dir/Scan/STLcd/lcd_scan.c.obj
 .ARM.attributes
                0x0000000000000132       0x33 CMakeFiles/kiibohd.elf.dir/Scan/UARTConnect/connect_scan.c.obj
 .ARM.attributes
                0x0000000000000165       0x33 CMakeFiles/kiibohd.elf.dir/Scan/Infinity_Ergodox/scan_loop.c.obj
 .ARM.attributes
                0x0000000000000198       0x33 CMakeFiles/kiibohd.elf.dir/Macro/PartialMap/macro.c.obj
 .ARM.attributes
                0x00000000000001cb       0x33 CMakeFiles/kiibohd.elf.dir/Macro/PartialMap/result.c.obj
 .ARM.attributes
                0x00000000000001fe       0x33 CMakeFiles/kiibohd.elf.dir/Macro/PartialMap/trigger.c.obj
 .ARM.attributes
                0x0000000000000231       0x33 CMakeFiles/kiibohd.elf.dir/Output/pjrcUSB/output_com.c.obj
 .ARM.attributes
                0x0000000000000264       0x33 CMakeFiles/kiibohd.elf.dir/Output/pjrcUSB/arm/usb_desc.c.obj
 .ARM.attributes
                0x0000000000000297       0x33 CMakeFiles/kiibohd.elf.dir/Output/pjrcUSB/arm/usb_dev.c.obj
 .ARM.attributes
                0x00000000000002ca       0x33 CMakeFiles/kiibohd.elf.dir/Output/pjrcUSB/arm/usb_keyboard.c.obj
 .ARM.attributes
                0x00000000000002fd       0x33 CMakeFiles/kiibohd.elf.dir/Output/pjrcUSB/arm/usb_mem.c.obj
 .ARM.attributes
                0x0000000000000330       0x33 CMakeFiles/kiibohd.elf.dir/Output/pjrcUSB/arm/usb_mouse.c.obj
 .ARM.attributes
                0x0000000000000363       0x33 CMakeFiles/kiibohd.elf.dir/Output/pjrcUSB/arm/usb_serial.c.obj
 .ARM.attributes
                0x0000000000000396       0x33 CMakeFiles/kiibohd.elf.dir/Debug/cli/cli.c.obj
 .ARM.attributes
                0x00000000000003c9       0x33 CMakeFiles/kiibohd.elf.dir/Debug/led/led.c.obj
 .ARM.attributes
                0x00000000000003fc       0x33 CMakeFiles/kiibohd.elf.dir/Debug/print/print.c.obj

.debug_frame    0x0000000000000000     0x1ad8
 .debug_frame   0x0000000000000000       0x28 CMakeFiles/kiibohd.elf.dir/main.c.obj
 .debug_frame   0x0000000000000028      0x144 CMakeFiles/kiibohd.elf.dir/Lib/mk20dx.c.obj
 .debug_frame   0x000000000000016c       0x4c CMakeFiles/kiibohd.elf.dir/Lib/delay.c.obj
 .debug_frame   0x00000000000001b8      0x2ac CMakeFiles/kiibohd.elf.dir/Scan/ISSILed/led_scan.c.obj
 .debug_frame   0x0000000000000464       0xfc CMakeFiles/kiibohd.elf.dir/Scan/MatrixARM/matrix_scan.c.obj
 .debug_frame   0x0000000000000560      0x1e4 CMakeFiles/kiibohd.elf.dir/Scan/STLcd/lcd_scan.c.obj
 .debug_frame   0x0000000000000744      0x388 CMakeFiles/kiibohd.elf.dir/Scan/UARTConnect/connect_scan.c.obj
 .debug_frame   0x0000000000000acc       0x7c CMakeFiles/kiibohd.elf.dir/Scan/Infinity_Ergodox/scan_loop.c.obj
 .debug_frame   0x0000000000000b48      0x3b8 CMakeFiles/kiibohd.elf.dir/Macro/PartialMap/macro.c.obj
 .debug_frame   0x0000000000000f00       0x84 CMakeFiles/kiibohd.elf.dir/Macro/PartialMap/result.c.obj
 .debug_frame   0x0000000000000f84       0xa4 CMakeFiles/kiibohd.elf.dir/Macro/PartialMap/trigger.c.obj
 .debug_frame   0x0000000000001028      0x2f8 CMakeFiles/kiibohd.elf.dir/Output/pjrcUSB/output_com.c.obj
 .debug_frame   0x0000000000001320       0x20 CMakeFiles/kiibohd.elf.dir/Output/pjrcUSB/arm/usb_desc.c.obj
 .debug_frame   0x0000000000001340      0x158 CMakeFiles/kiibohd.elf.dir/Output/pjrcUSB/arm/usb_dev.c.obj
 .debug_frame   0x0000000000001498       0x44 CMakeFiles/kiibohd.elf.dir/Output/pjrcUSB/arm/usb_keyboard.c.obj
 .debug_frame   0x00000000000014dc       0x38 CMakeFiles/kiibohd.elf.dir/Output/pjrcUSB/arm/usb_mem.c.obj
 .debug_frame   0x0000000000001514       0xa8 CMakeFiles/kiibohd.elf.dir/Output/pjrcUSB/arm/usb_mouse.c.obj
 .debug_frame   0x00000000000015bc      0x114 CMakeFiles/kiibohd.elf.dir/Output/pjrcUSB/arm/usb_serial.c.obj
 .debug_frame   0x00000000000016d0      0x1fc CMakeFiles/kiibohd.elf.dir/Debug/cli/cli.c.obj
 .debug_frame   0x00000000000018cc       0x30 CMakeFiles/kiibohd.elf.dir/Debug/led/led.c.obj
 .debug_frame   0x00000000000018fc      0x1dc CMakeFiles/kiibohd.elf.dir/Debug/print/print.c.obj

.debug_loc      0x0000000000000000     0x72bc
 .debug_loc     0x0000000000000000      0x33a CMakeFiles/kiibohd.elf.dir/Lib/mk20dx.c.obj
 .debug_loc     0x000000000000033a       0x6f CMakeFiles/kiibohd.elf.dir/Lib/delay.c.obj
 .debug_loc     0x00000000000003a9      0xab3 CMakeFiles/kiibohd.elf.dir/Scan/ISSILed/led_scan.c.obj
 .debug_loc     0x0000000000000e5c      0x58d CMakeFiles/kiibohd.elf.dir/Scan/MatrixARM/matrix_scan.c.obj
 .debug_loc     0x00000000000013e9      0x6f4 CMakeFiles/kiibohd.elf.dir/Scan/STLcd/lcd_scan.c.obj
 .debug_loc     0x0000000000001add      0xebd CMakeFiles/kiibohd.elf.dir/Scan/UARTConnect/connect_scan.c.obj
 .debug_loc     0x000000000000299a       0x37 CMakeFiles/kiibohd.elf.dir/Scan/Infinity_Ergodox/scan_loop.c.obj
 .debug_loc     0x00000000000029d1     0x1383 CMakeFiles/kiibohd.elf.dir/Macro/PartialMap/macro.c.obj
 .debug_loc     0x0000000000003d54      0x16e CMakeFiles/kiibohd.elf.dir/Macro/PartialMap/result.c.obj
 .debug_loc     0x0000000000003ec2      0x34b CMakeFiles/kiibohd.elf.dir/Macro/PartialMap/trigger.c.obj
 .debug_loc     0x000000000000420d      0xf77 CMakeFiles/kiibohd.elf.dir/Output/pjrcUSB/output_com.c.obj
 .debug_loc     0x0000000000005184      0xa71 CMakeFiles/kiibohd.elf.dir/Output/pjrcUSB/arm/usb_dev.c.obj
 .debug_loc     0x0000000000005bf5      0x296 CMakeFiles/kiibohd.elf.dir/Output/pjrcUSB/arm/usb_keyboard.c.obj
 .debug_loc     0x0000000000005e8b       0xca CMakeFiles/kiibohd.elf.dir/Output/pjrcUSB/arm/usb_mem.c.obj
 .debug_loc     0x0000000000005f55      0x35d CMakeFiles/kiibohd.elf.dir/Output/pjrcUSB/arm/usb_mouse.c.obj
 .debug_loc     0x00000000000062b2      0x2e4 CMakeFiles/kiibohd.elf.dir/Output/pjrcUSB/arm/usb_serial.c.obj
 .debug_loc     0x0000000000006596      0x5b2 CMakeFiles/kiibohd.elf.dir/Debug/cli/cli.c.obj
 .debug_loc     0x0000000000006b48      0x774 CMakeFiles/kiibohd.elf.dir/Debug/print/print.c.obj

Cross Reference Table

Symbol                                            File
CLIDict                                           CMakeFiles/kiibohd.elf.dir/Debug/cli/cli.c.obj
                                                  CMakeFiles/kiibohd.elf.dir/Output/pjrcUSB/output_com.c.obj
                                                  CMakeFiles/kiibohd.elf.dir/Macro/PartialMap/macro.c.obj
                                                  CMakeFiles/kiibohd.elf.dir/Scan/Infinity_Ergodox/scan_loop.c.obj
                                                  CMakeFiles/kiibohd.elf.dir/Scan/UARTConnect/connect_scan.c.obj
                                                  CMakeFiles/kiibohd.elf.dir/Scan/STLcd/lcd_scan.c.obj
                                                  CMakeFiles/kiibohd.elf.dir/Scan/MatrixARM/matrix_scan.c.obj
                                                  CMakeFiles/kiibohd.elf.dir/Scan/ISSILed/led_scan.c.obj
                                                  CMakeFiles/kiibohd.elf.dir/main.c.obj
CLIDictNames                                      CMakeFiles/kiibohd.elf.dir/Debug/cli/cli.c.obj
                                                  CMakeFiles/kiibohd.elf.dir/Output/pjrcUSB/output_com.c.obj
                                                  CMakeFiles/kiibohd.elf.dir/Macro/PartialMap/macro.c.obj
                                                  CMakeFiles/kiibohd.elf.dir/Scan/Infinity_Ergodox/scan_loop.c.obj
                                                  CMakeFiles/kiibohd.elf.dir/Scan/UARTConnect/connect_scan.c.obj
                                                  CMakeFiles/kiibohd.elf.dir/Scan/STLcd/lcd_scan.c.obj
                                                  CMakeFiles/kiibohd.elf.dir/Scan/MatrixARM/matrix_scan.c.obj
                                                  CMakeFiles/kiibohd.elf.dir/Scan/ISSILed/led_scan.c.obj
                                                  CMakeFiles/kiibohd.elf.dir/main.c.obj
CLIDictionariesUsed                               CMakeFiles/kiibohd.elf.dir/Debug/cli/cli.c.obj
                                                  CMakeFiles/kiibohd.elf.dir/Output/pjrcUSB/output_com.c.obj
                                                  CMakeFiles/kiibohd.elf.dir/Macro/PartialMap/macro.c.obj
                                                  CMakeFiles/kiibohd.elf.dir/Scan/Infinity_Ergodox/scan_loop.c.obj
                                                  CMakeFiles/kiibohd.elf.dir/Scan/UARTConnect/connect_scan.c.obj
                                                  CMakeFiles/kiibohd.elf.dir/Scan/STLcd/lcd_scan.c.obj
                                                  CMakeFiles/kiibohd.elf.dir/Scan/MatrixARM/matrix_scan.c.obj
                                                  CMakeFiles/kiibohd.elf.dir/Scan/ISSILed/led_scan.c.obj
                                                  CMakeFiles/kiibohd.elf.dir/main.c.obj
CLIHexDebugMode                                   CMakeFiles/kiibohd.elf.dir/Debug/cli/cli.c.obj
                                                  CMakeFiles/kiibohd.elf.dir/Output/pjrcUSB/output_com.c.obj
                                                  CMakeFiles/kiibohd.elf.dir/Macro/PartialMap/macro.c.obj
                                                  CMakeFiles/kiibohd.elf.dir/Scan/Infinity_Ergodox/scan_loop.c.obj
                                                  CMakeFiles/kiibohd.elf.dir/Scan/UARTConnect/connect_scan.c.obj
                                                  CMakeFiles/kiibohd.elf.dir/Scan/STLcd/lcd_scan.c.obj
                                                  CMakeFiles/kiibohd.elf.dir/Scan/MatrixARM/matrix_scan.c.obj
                                                  CMakeFiles/kiibohd.elf.dir/Scan/ISSILed/led_scan.c.obj
                                                  CMakeFiles/kiibohd.elf.dir/main.c.obj
CLIHistoryBuffer                                  CMakeFiles/kiibohd.elf.dir/Debug/cli/cli.c.obj
                                                  CMakeFiles/kiibohd.elf.dir/Output/pjrcUSB/output_com.c.obj
                                                  CMakeFiles/kiibohd.elf.dir/Macro/PartialMap/macro.c.obj
                                                  CMakeFiles/kiibohd.elf.dir/Scan/Infinity_Ergodox/scan_loop.c.obj
                                                  CMakeFiles/kiibohd.elf.dir/Scan/UARTConnect/connect_scan.c.obj
                                                  CMakeFiles/kiibohd.elf.dir/Scan/STLcd/lcd_scan.c.obj
                                                  CMakeFiles/kiibohd.elf.dir/Scan/MatrixARM/matrix_scan.c.obj
                                                  CMakeFiles/kiibohd.elf.dir/Scan/ISSILed/led_scan.c.obj
                                                  CMakeFiles/kiibohd.elf.dir/main.c.obj
CLIHistoryCurrent                                 CMakeFiles/kiibohd.elf.dir/Debug/cli/cli.c.obj
                                                  CMakeFiles/kiibohd.elf.dir/Output/pjrcUSB/output_com.c.obj
                                                  CMakeFiles/kiibohd.elf.dir/Macro/PartialMap/macro.c.obj
                                                  CMakeFiles/kiibohd.elf.dir/Scan/Infinity_Ergodox/scan_loop.c.obj
                                                  CMakeFiles/kiibohd.elf.dir/Scan/UARTConnect/connect_scan.c.obj
                                                  CMakeFiles/kiibohd.elf.dir/Scan/STLcd/lcd_scan.c.obj
                                                  CMakeFiles/kiibohd.elf.dir/Scan/MatrixARM/matrix_scan.c.obj
                                                  CMakeFiles/kiibohd.elf.dir/Scan/ISSILed/led_scan.c.obj
                                                  CMakeFiles/kiibohd.elf.dir/main.c.obj
CLIHistoryHead                                    CMakeFiles/kiibohd.elf.dir/Debug/cli/cli.c.obj
                                                  CMakeFiles/kiibohd.elf.dir/Output/pjrcUSB/output_com.c.obj
                                                  CMakeFiles/kiibohd.elf.dir/Macro/PartialMap/macro.c.obj
                                                  CMakeFiles/kiibohd.elf.dir/Scan/Infinity_Ergodox/scan_loop.c.obj
                                                  CMakeFiles/kiibohd.elf.dir/Scan/UARTConnect/connect_scan.c.obj
                                                  CMakeFiles/kiibohd.elf.dir/Scan/STLcd/lcd_scan.c.obj
                                                  CMakeFiles/kiibohd.elf.dir/Scan/MatrixARM/matrix_scan.c.obj
                                                  CMakeFiles/kiibohd.elf.dir/Scan/ISSILed/led_scan.c.obj
                                                  CMakeFiles/kiibohd.elf.dir/main.c.obj
CLIHistoryTail                                    CMakeFiles/kiibohd.elf.dir/Debug/cli/cli.c.obj
                                                  CMakeFiles/kiibohd.elf.dir/Output/pjrcUSB/output_com.c.obj
                                                  CMakeFiles/kiibohd.elf.dir/Macro/PartialMap/macro.c.obj
                                                  CMakeFiles/kiibohd.elf.dir/Scan/Infinity_Ergodox/scan_loop.c.obj
                                                  CMakeFiles/kiibohd.elf.dir/Scan/UARTConnect/connect_scan.c.obj
                                                  CMakeFiles/kiibohd.elf.dir/Scan/STLcd/lcd_scan.c.obj
                                                  CMakeFiles/kiibohd.elf.dir/Scan/MatrixARM/matrix_scan.c.obj
                                                  CMakeFiles/kiibohd.elf.dir/Scan/ISSILed/led_scan.c.obj
                                                  CMakeFiles/kiibohd.elf.dir/main.c.obj
CLILEDState                                       CMakeFiles/kiibohd.elf.dir/Debug/cli/cli.c.obj
                                                  CMakeFiles/kiibohd.elf.dir/Output/pjrcUSB/output_com.c.obj
                                                  CMakeFiles/kiibohd.elf.dir/Macro/PartialMap/macro.c.obj
                                                  CMakeFiles/kiibohd.elf.dir/Scan/Infinity_Ergodox/scan_loop.c.obj
                                                  CMakeFiles/kiibohd.elf.dir/Scan/UARTConnect/connect_scan.c.obj
                                                  CMakeFiles/kiibohd.elf.dir/Scan/STLcd/lcd_scan.c.obj
                                                  CMakeFiles/kiibohd.elf.dir/Scan/MatrixARM/matrix_scan.c.obj
                                                  CMakeFiles/kiibohd.elf.dir/Scan/ISSILed/led_scan.c.obj
                                                  CMakeFiles/kiibohd.elf.dir/main.c.obj
CLILineBuffer                                     CMakeFiles/kiibohd.elf.dir/Debug/cli/cli.c.obj
                                                  CMakeFiles/kiibohd.elf.dir/Output/pjrcUSB/output_com.c.obj
                                                  CMakeFiles/kiibohd.elf.dir/Macro/PartialMap/macro.c.obj
                                                  CMakeFiles/kiibohd.elf.dir/Scan/Infinity_Ergodox/scan_loop.c.obj
                                                  CMakeFiles/kiibohd.elf.dir/Scan/UARTConnect/connect_scan.c.obj
                                                  CMakeFiles/kiibohd.elf.dir/Scan/STLcd/lcd_scan.c.obj
                                                  CMakeFiles/kiibohd.elf.dir/Scan/MatrixARM/matrix_scan.c.obj
                                                  CMakeFiles/kiibohd.elf.dir/Scan/ISSILed/led_scan.c.obj
                                                  CMakeFiles/kiibohd.elf.dir/main.c.obj
CLILineBufferCurrent                              CMakeFiles/kiibohd.elf.dir/Debug/cli/cli.c.obj
                                                  CMakeFiles/kiibohd.elf.dir/Output/pjrcUSB/output_com.c.obj
                                                  CMakeFiles/kiibohd.elf.dir/Macro/PartialMap/macro.c.obj
                                                  CMakeFiles/kiibohd.elf.dir/Scan/Infinity_Ergodox/scan_loop.c.obj
                                                  CMakeFiles/kiibohd.elf.dir/Scan/UARTConnect/connect_scan.c.obj
                                                  CMakeFiles/kiibohd.elf.dir/Scan/STLcd/lcd_scan.c.obj
                                                  CMakeFiles/kiibohd.elf.dir/Scan/MatrixARM/matrix_scan.c.obj
                                                  CMakeFiles/kiibohd.elf.dir/Scan/ISSILed/led_scan.c.obj
                                                  CMakeFiles/kiibohd.elf.dir/main.c.obj
CLI_argumentIsolation                             CMakeFiles/kiibohd.elf.dir/Debug/cli/cli.c.obj
                                                  CMakeFiles/kiibohd.elf.dir/Output/pjrcUSB/output_com.c.obj
                                                  CMakeFiles/kiibohd.elf.dir/Macro/PartialMap/macro.c.obj
                                                  CMakeFiles/kiibohd.elf.dir/Scan/UARTConnect/connect_scan.c.obj
                                                  CMakeFiles/kiibohd.elf.dir/Scan/STLcd/lcd_scan.c.obj
                                                  CMakeFiles/kiibohd.elf.dir/Scan/MatrixARM/matrix_scan.c.obj
                                                  CMakeFiles/kiibohd.elf.dir/Scan/ISSILed/led_scan.c.obj
CLI_commandLookup                                 CMakeFiles/kiibohd.elf.dir/Debug/cli/cli.c.obj
CLI_init                                          CMakeFiles/kiibohd.elf.dir/Debug/cli/cli.c.obj
                                                  CMakeFiles/kiibohd.elf.dir/main.c.obj
CLI_process                                       CMakeFiles/kiibohd.elf.dir/Debug/cli/cli.c.obj
                                                  CMakeFiles/kiibohd.elf.dir/main.c.obj
CLI_registerDictionary                            CMakeFiles/kiibohd.elf.dir/Debug/cli/cli.c.obj
                                                  CMakeFiles/kiibohd.elf.dir/Output/pjrcUSB/output_com.c.obj
                                                  CMakeFiles/kiibohd.elf.dir/Macro/PartialMap/macro.c.obj
                                                  CMakeFiles/kiibohd.elf.dir/Scan/UARTConnect/connect_scan.c.obj
                                                  CMakeFiles/kiibohd.elf.dir/Scan/STLcd/lcd_scan.c.obj
                                                  CMakeFiles/kiibohd.elf.dir/Scan/MatrixARM/matrix_scan.c.obj
                                                  CMakeFiles/kiibohd.elf.dir/Scan/ISSILed/led_scan.c.obj
CLI_retreiveHistory                               CMakeFiles/kiibohd.elf.dir/Debug/cli/cli.c.obj
CLI_saveHistory                                   CMakeFiles/kiibohd.elf.dir/Debug/cli/cli.c.obj
CLI_tabCompletion                                 CMakeFiles/kiibohd.elf.dir/Debug/cli/cli.c.obj
CLI_wrap                                          CMakeFiles/kiibohd.elf.dir/Debug/cli/cli.c.obj
CapabilitiesList                                  CMakeFiles/kiibohd.elf.dir/Macro/PartialMap/macro.c.obj
                                                  CMakeFiles/kiibohd.elf.dir/Macro/PartialMap/trigger.c.obj
                                                  CMakeFiles/kiibohd.elf.dir/Macro/PartialMap/result.c.obj
                                                  CMakeFiles/kiibohd.elf.dir/Scan/UARTConnect/connect_scan.c.obj
                                                  CMakeFiles/kiibohd.elf.dir/Scan/STLcd/lcd_scan.c.obj
                                                  CMakeFiles/kiibohd.elf.dir/Scan/ISSILed/led_scan.c.obj
Connect_addBytes                                  CMakeFiles/kiibohd.elf.dir/Scan/UARTConnect/connect_scan.c.obj
Connect_baud                                      CMakeFiles/kiibohd.elf.dir/Scan/UARTConnect/connect_scan.c.obj
Connect_baudFine                                  CMakeFiles/kiibohd.elf.dir/Scan/UARTConnect/connect_scan.c.obj
Connect_cableChecksMaster                         CMakeFiles/kiibohd.elf.dir/Scan/UARTConnect/connect_scan.c.obj
Connect_cableChecksSlave                          CMakeFiles/kiibohd.elf.dir/Scan/UARTConnect/connect_scan.c.obj
Connect_cableFaultsMaster                         CMakeFiles/kiibohd.elf.dir/Scan/UARTConnect/connect_scan.c.obj
Connect_cableFaultsSlave                          CMakeFiles/kiibohd.elf.dir/Scan/UARTConnect/connect_scan.c.obj
Connect_cableOkMaster                             CMakeFiles/kiibohd.elf.dir/Scan/UARTConnect/connect_scan.c.obj
Connect_cableOkSlave                              CMakeFiles/kiibohd.elf.dir/Scan/UARTConnect/connect_scan.c.obj
Connect_currentChange                             CMakeFiles/kiibohd.elf.dir/Scan/UARTConnect/connect_scan.c.obj
                                                  CMakeFiles/kiibohd.elf.dir/Scan/Infinity_Ergodox/scan_loop.c.obj
Connect_debug                                     CMakeFiles/kiibohd.elf.dir/Scan/UARTConnect/connect_scan.c.obj
Connect_id                                        CMakeFiles/kiibohd.elf.dir/Scan/UARTConnect/connect_scan.c.obj
                                                  CMakeFiles/kiibohd.elf.dir/Macro/PartialMap/macro.c.obj
                                                  CMakeFiles/kiibohd.elf.dir/Scan/ISSILed/led_scan.c.obj
Connect_lastCheck                                 CMakeFiles/kiibohd.elf.dir/Scan/UARTConnect/connect_scan.c.obj
Connect_master                                    CMakeFiles/kiibohd.elf.dir/Scan/UARTConnect/connect_scan.c.obj
                                                  CMakeFiles/kiibohd.elf.dir/Macro/PartialMap/macro.c.obj
                                                  CMakeFiles/kiibohd.elf.dir/Scan/STLcd/lcd_scan.c.obj
Connect_maxId                                     CMakeFiles/kiibohd.elf.dir/Scan/UARTConnect/connect_scan.c.obj
Connect_override                                  CMakeFiles/kiibohd.elf.dir/Scan/UARTConnect/connect_scan.c.obj
Connect_receiveFunctions                          CMakeFiles/kiibohd.elf.dir/Scan/UARTConnect/connect_scan.c.obj
Connect_receive_Animation                         CMakeFiles/kiibohd.elf.dir/Scan/UARTConnect/connect_scan.c.obj
Connect_receive_CableCheck                        CMakeFiles/kiibohd.elf.dir/Scan/UARTConnect/connect_scan.c.obj
Connect_receive_IdEnumeration                     CMakeFiles/kiibohd.elf.dir/Scan/UARTConnect/connect_scan.c.obj
Connect_receive_IdReport                          CMakeFiles/kiibohd.elf.dir/Scan/UARTConnect/connect_scan.c.obj
Connect_receive_IdRequest                         CMakeFiles/kiibohd.elf.dir/Scan/UARTConnect/connect_scan.c.obj
Connect_receive_RemoteCapability                  CMakeFiles/kiibohd.elf.dir/Scan/UARTConnect/connect_scan.c.obj
Connect_receive_RemoteCapabilityArgs              CMakeFiles/kiibohd.elf.dir/Scan/UARTConnect/connect_scan.c.obj
Connect_receive_RemoteCapabilityBuffer            CMakeFiles/kiibohd.elf.dir/Scan/UARTConnect/connect_scan.c.obj
Connect_receive_ScanCode                          CMakeFiles/kiibohd.elf.dir/Scan/UARTConnect/connect_scan.c.obj
Connect_receive_ScanCodeBuffer                    CMakeFiles/kiibohd.elf.dir/Scan/UARTConnect/connect_scan.c.obj
Connect_receive_ScanCodeBufferPos                 CMakeFiles/kiibohd.elf.dir/Scan/UARTConnect/connect_scan.c.obj
Connect_receive_ScanCodeDeviceId                  CMakeFiles/kiibohd.elf.dir/Scan/UARTConnect/connect_scan.c.obj
Connect_reset                                     CMakeFiles/kiibohd.elf.dir/Scan/UARTConnect/connect_scan.c.obj
Connect_rx_process                                CMakeFiles/kiibohd.elf.dir/Scan/UARTConnect/connect_scan.c.obj
Connect_scan                                      CMakeFiles/kiibohd.elf.dir/Scan/UARTConnect/connect_scan.c.obj
                                                  CMakeFiles/kiibohd.elf.dir/Scan/Infinity_Ergodox/scan_loop.c.obj
Connect_send_Animation                            CMakeFiles/kiibohd.elf.dir/Scan/UARTConnect/connect_scan.c.obj
Connect_send_CableCheck                           CMakeFiles/kiibohd.elf.dir/Scan/UARTConnect/connect_scan.c.obj
Connect_send_IdEnumeration                        CMakeFiles/kiibohd.elf.dir/Scan/UARTConnect/connect_scan.c.obj
Connect_send_IdReport                             CMakeFiles/kiibohd.elf.dir/Scan/UARTConnect/connect_scan.c.obj
Connect_send_IdRequest                            CMakeFiles/kiibohd.elf.dir/Scan/UARTConnect/connect_scan.c.obj
Connect_send_Idle                                 CMakeFiles/kiibohd.elf.dir/Scan/UARTConnect/connect_scan.c.obj
Connect_send_RemoteCapability                     CMakeFiles/kiibohd.elf.dir/Scan/UARTConnect/connect_scan.c.obj
                                                  CMakeFiles/kiibohd.elf.dir/Scan/STLcd/lcd_scan.c.obj
                                                  CMakeFiles/kiibohd.elf.dir/Scan/ISSILed/led_scan.c.obj
Connect_send_ScanCode                             CMakeFiles/kiibohd.elf.dir/Scan/UARTConnect/connect_scan.c.obj
                                                  CMakeFiles/kiibohd.elf.dir/Macro/PartialMap/macro.c.obj
Connect_setup                                     CMakeFiles/kiibohd.elf.dir/Scan/UARTConnect/connect_scan.c.obj
                                                  CMakeFiles/kiibohd.elf.dir/Scan/Infinity_Ergodox/scan_loop.c.obj
I2C_BufferLen                                     CMakeFiles/kiibohd.elf.dir/Scan/ISSILed/led_scan.c.obj
I2C_BufferPush                                    CMakeFiles/kiibohd.elf.dir/Scan/ISSILed/led_scan.c.obj
I2C_RxBuffer                                      CMakeFiles/kiibohd.elf.dir/Scan/ISSILed/led_scan.c.obj
I2C_RxBufferPtr                                   CMakeFiles/kiibohd.elf.dir/Scan/ISSILed/led_scan.c.obj
I2C_Send                                          CMakeFiles/kiibohd.elf.dir/Scan/ISSILed/led_scan.c.obj
I2C_TxBuffer                                      CMakeFiles/kiibohd.elf.dir/Scan/ISSILed/led_scan.c.obj
I2C_TxBufferPop                                   CMakeFiles/kiibohd.elf.dir/Scan/ISSILed/led_scan.c.obj
I2C_TxBufferPtr                                   CMakeFiles/kiibohd.elf.dir/Scan/ISSILed/led_scan.c.obj
InterconnectOffsetList                            CMakeFiles/kiibohd.elf.dir/Macro/PartialMap/macro.c.obj
                                                  CMakeFiles/kiibohd.elf.dir/Scan/UARTConnect/connect_scan.c.obj
LCD_clear                                         CMakeFiles/kiibohd.elf.dir/Scan/STLcd/lcd_scan.c.obj
LCD_currentChange                                 CMakeFiles/kiibohd.elf.dir/Scan/STLcd/lcd_scan.c.obj
                                                  CMakeFiles/kiibohd.elf.dir/Scan/Infinity_Ergodox/scan_loop.c.obj
LCD_initialize                                    CMakeFiles/kiibohd.elf.dir/Scan/STLcd/lcd_scan.c.obj
LCD_layerStackExact                               CMakeFiles/kiibohd.elf.dir/Scan/STLcd/lcd_scan.c.obj
LCD_layerStackExact_capability                    CMakeFiles/kiibohd.elf.dir/Scan/STLcd/lcd_scan.c.obj
                                                  CMakeFiles/kiibohd.elf.dir/Macro/PartialMap/macro.c.obj
LCD_layerStackExact_size                          CMakeFiles/kiibohd.elf.dir/Scan/STLcd/lcd_scan.c.obj
LCD_layerStack_capability                         CMakeFiles/kiibohd.elf.dir/Scan/STLcd/lcd_scan.c.obj
                                                  CMakeFiles/kiibohd.elf.dir/Macro/PartialMap/macro.c.obj
LCD_layerStack_prevSize                           CMakeFiles/kiibohd.elf.dir/Scan/STLcd/lcd_scan.c.obj
LCD_layerStack_prevTop                            CMakeFiles/kiibohd.elf.dir/Scan/STLcd/lcd_scan.c.obj
LCD_scan                                          CMakeFiles/kiibohd.elf.dir/Scan/STLcd/lcd_scan.c.obj
                                                  CMakeFiles/kiibohd.elf.dir/Scan/Infinity_Ergodox/scan_loop.c.obj
LCD_setup                                         CMakeFiles/kiibohd.elf.dir/Scan/STLcd/lcd_scan.c.obj
                                                  CMakeFiles/kiibohd.elf.dir/Scan/Infinity_Ergodox/scan_loop.c.obj
LCD_writeControlReg                               CMakeFiles/kiibohd.elf.dir/Scan/STLcd/lcd_scan.c.obj
LCD_writeDataReg                                  CMakeFiles/kiibohd.elf.dir/Scan/STLcd/lcd_scan.c.obj
LCD_writeDisplayReg                               CMakeFiles/kiibohd.elf.dir/Scan/STLcd/lcd_scan.c.obj
LED_control                                       CMakeFiles/kiibohd.elf.dir/Scan/ISSILed/led_scan.c.obj
LED_control_capability                            CMakeFiles/kiibohd.elf.dir/Scan/ISSILed/led_scan.c.obj
                                                  CMakeFiles/kiibohd.elf.dir/Macro/PartialMap/macro.c.obj
LED_control_timer                                 CMakeFiles/kiibohd.elf.dir/Scan/ISSILed/led_scan.c.obj
LED_currentChange                                 CMakeFiles/kiibohd.elf.dir/Scan/ISSILed/led_scan.c.obj
                                                  CMakeFiles/kiibohd.elf.dir/Scan/Infinity_Ergodox/scan_loop.c.obj
LED_currentEvent                                  CMakeFiles/kiibohd.elf.dir/Scan/ISSILed/led_scan.c.obj
LED_defaultBrightness1                            CMakeFiles/kiibohd.elf.dir/Scan/ISSILed/led_scan.c.obj
LED_ledEnableMask1                                CMakeFiles/kiibohd.elf.dir/Scan/ISSILed/led_scan.c.obj
LED_pageBuffer                                    CMakeFiles/kiibohd.elf.dir/Scan/ISSILed/led_scan.c.obj
LED_readPage                                      CMakeFiles/kiibohd.elf.dir/Scan/ISSILed/led_scan.c.obj
LED_scan                                          CMakeFiles/kiibohd.elf.dir/Scan/ISSILed/led_scan.c.obj
                                                  CMakeFiles/kiibohd.elf.dir/Scan/Infinity_Ergodox/scan_loop.c.obj
LED_sendPage                                      CMakeFiles/kiibohd.elf.dir/Scan/ISSILed/led_scan.c.obj
LED_setup                                         CMakeFiles/kiibohd.elf.dir/Scan/ISSILed/led_scan.c.obj
                                                  CMakeFiles/kiibohd.elf.dir/Scan/Infinity_Ergodox/scan_loop.c.obj
LED_writeReg                                      CMakeFiles/kiibohd.elf.dir/Scan/ISSILed/led_scan.c.obj
LED_zeroPages                                     CMakeFiles/kiibohd.elf.dir/Scan/ISSILed/led_scan.c.obj
LayerIndex                                        CMakeFiles/kiibohd.elf.dir/Macro/PartialMap/macro.c.obj
LayerState                                        CMakeFiles/kiibohd.elf.dir/Macro/PartialMap/macro.c.obj
Macro_analogState                                 CMakeFiles/kiibohd.elf.dir/Macro/PartialMap/macro.c.obj
Macro_appendResultMacroToPendingList              CMakeFiles/kiibohd.elf.dir/Macro/PartialMap/macro.c.obj
                                                  CMakeFiles/kiibohd.elf.dir/Macro/PartialMap/trigger.c.obj
Macro_evalResultMacro                             CMakeFiles/kiibohd.elf.dir/Macro/PartialMap/result.c.obj
Macro_evalTriggerMacro                            CMakeFiles/kiibohd.elf.dir/Macro/PartialMap/trigger.c.obj
Macro_keyState                                    CMakeFiles/kiibohd.elf.dir/Macro/PartialMap/macro.c.obj
                                                  CMakeFiles/kiibohd.elf.dir/Scan/MatrixARM/matrix_scan.c.obj
Macro_layerLatch_capability                       CMakeFiles/kiibohd.elf.dir/Macro/PartialMap/macro.c.obj
Macro_layerLock_capability                        CMakeFiles/kiibohd.elf.dir/Macro/PartialMap/macro.c.obj
Macro_layerLookup                                 CMakeFiles/kiibohd.elf.dir/Macro/PartialMap/macro.c.obj
                                                  CMakeFiles/kiibohd.elf.dir/Macro/PartialMap/trigger.c.obj
Macro_layerRotate_capability                      CMakeFiles/kiibohd.elf.dir/Macro/PartialMap/macro.c.obj
Macro_layerShift_capability                       CMakeFiles/kiibohd.elf.dir/Macro/PartialMap/macro.c.obj
Macro_layerState                                  CMakeFiles/kiibohd.elf.dir/Macro/PartialMap/macro.c.obj
Macro_layerState_capability                       CMakeFiles/kiibohd.elf.dir/Macro/PartialMap/macro.c.obj
Macro_ledState                                    CMakeFiles/kiibohd.elf.dir/Macro/PartialMap/macro.c.obj
Macro_pressReleaseAdd                             CMakeFiles/kiibohd.elf.dir/Macro/PartialMap/macro.c.obj
                                                  CMakeFiles/kiibohd.elf.dir/Scan/UARTConnect/connect_scan.c.obj
Macro_process                                     CMakeFiles/kiibohd.elf.dir/Macro/PartialMap/macro.c.obj
                                                  CMakeFiles/kiibohd.elf.dir/main.c.obj
Macro_rotationLayer                               CMakeFiles/kiibohd.elf.dir/Macro/PartialMap/macro.c.obj
Macro_setup                                       CMakeFiles/kiibohd.elf.dir/Macro/PartialMap/macro.c.obj
                                                  CMakeFiles/kiibohd.elf.dir/main.c.obj
Matrix_cols                                       CMakeFiles/kiibohd.elf.dir/Scan/MatrixARM/matrix_scan.c.obj
Matrix_currentChange                              CMakeFiles/kiibohd.elf.dir/Scan/MatrixARM/matrix_scan.c.obj
                                                  CMakeFiles/kiibohd.elf.dir/Scan/Infinity_Ergodox/scan_loop.c.obj
Matrix_keyPositionDebug                           CMakeFiles/kiibohd.elf.dir/Scan/MatrixARM/matrix_scan.c.obj
Matrix_pin                                        CMakeFiles/kiibohd.elf.dir/Scan/MatrixARM/matrix_scan.c.obj
Matrix_rows                                       CMakeFiles/kiibohd.elf.dir/Scan/MatrixARM/matrix_scan.c.obj
Matrix_scan                                       CMakeFiles/kiibohd.elf.dir/Scan/MatrixARM/matrix_scan.c.obj
                                                  CMakeFiles/kiibohd.elf.dir/Scan/Infinity_Ergodox/scan_loop.c.obj
Matrix_scanArray                                  CMakeFiles/kiibohd.elf.dir/Scan/MatrixARM/matrix_scan.c.obj
Matrix_setup                                      CMakeFiles/kiibohd.elf.dir/Scan/MatrixARM/matrix_scan.c.obj
                                                  CMakeFiles/kiibohd.elf.dir/Scan/Infinity_Ergodox/scan_loop.c.obj
Matrix_type                                       CMakeFiles/kiibohd.elf.dir/Scan/MatrixARM/matrix_scan.c.obj
Output_Available                                  CMakeFiles/kiibohd.elf.dir/Output/pjrcUSB/output_com.c.obj
                                                  CMakeFiles/kiibohd.elf.dir/Output/pjrcUSB/arm/usb_dev.c.obj
                                                  CMakeFiles/kiibohd.elf.dir/Scan/Infinity_Ergodox/scan_loop.c.obj
                                                  CMakeFiles/kiibohd.elf.dir/Scan/UARTConnect/connect_scan.c.obj
Output_DebugMode                                  CMakeFiles/kiibohd.elf.dir/Output/pjrcUSB/output_com.c.obj
                                                  CMakeFiles/kiibohd.elf.dir/Output/pjrcUSB/arm/usb_keyboard.c.obj
Output_ExtCurrent_Available                       CMakeFiles/kiibohd.elf.dir/Output/pjrcUSB/output_com.c.obj
Output_USBCurrent_Available                       CMakeFiles/kiibohd.elf.dir/Output/pjrcUSB/output_com.c.obj
Output_availablechar                              CMakeFiles/kiibohd.elf.dir/Output/pjrcUSB/output_com.c.obj
                                                  CMakeFiles/kiibohd.elf.dir/Debug/cli/cli.c.obj
Output_consCtrlSend_capability                    CMakeFiles/kiibohd.elf.dir/Output/pjrcUSB/output_com.c.obj
                                                  CMakeFiles/kiibohd.elf.dir/Macro/PartialMap/macro.c.obj
Output_current_available                          CMakeFiles/kiibohd.elf.dir/Output/pjrcUSB/output_com.c.obj
                                                  CMakeFiles/kiibohd.elf.dir/Scan/ISSILed/led_scan.c.obj
Output_firmwareReload                             CMakeFiles/kiibohd.elf.dir/Output/pjrcUSB/output_com.c.obj
Output_flashMode_capability                       CMakeFiles/kiibohd.elf.dir/Output/pjrcUSB/output_com.c.obj
                                                  CMakeFiles/kiibohd.elf.dir/Macro/PartialMap/macro.c.obj
Output_flushBuffers                               CMakeFiles/kiibohd.elf.dir/Output/pjrcUSB/output_com.c.obj
Output_getchar                                    CMakeFiles/kiibohd.elf.dir/Output/pjrcUSB/output_com.c.obj
                                                  CMakeFiles/kiibohd.elf.dir/Debug/cli/cli.c.obj
Output_kbdProtocolBoot_capability                 CMakeFiles/kiibohd.elf.dir/Output/pjrcUSB/output_com.c.obj
                                                  CMakeFiles/kiibohd.elf.dir/Macro/PartialMap/macro.c.obj
Output_kbdProtocolNKRO_capability                 CMakeFiles/kiibohd.elf.dir/Output/pjrcUSB/output_com.c.obj
                                                  CMakeFiles/kiibohd.elf.dir/Macro/PartialMap/macro.c.obj
Output_noneSend_capability                        CMakeFiles/kiibohd.elf.dir/Output/pjrcUSB/output_com.c.obj
                                                  CMakeFiles/kiibohd.elf.dir/Macro/PartialMap/macro.c.obj
Output_putchar                                    CMakeFiles/kiibohd.elf.dir/Output/pjrcUSB/output_com.c.obj
Output_putstr                                     CMakeFiles/kiibohd.elf.dir/Output/pjrcUSB/output_com.c.obj
                                                  CMakeFiles/kiibohd.elf.dir/Debug/print/print.c.obj
                                                  CMakeFiles/kiibohd.elf.dir/Debug/cli/cli.c.obj
                                                  CMakeFiles/kiibohd.elf.dir/Macro/PartialMap/macro.c.obj
                                                  CMakeFiles/kiibohd.elf.dir/Scan/UARTConnect/connect_scan.c.obj
                                                  CMakeFiles/kiibohd.elf.dir/Scan/ISSILed/led_scan.c.obj
Output_send                                       CMakeFiles/kiibohd.elf.dir/Output/pjrcUSB/output_com.c.obj
                                                  CMakeFiles/kiibohd.elf.dir/main.c.obj
Output_setup                                      CMakeFiles/kiibohd.elf.dir/Output/pjrcUSB/output_com.c.obj
                                                  CMakeFiles/kiibohd.elf.dir/main.c.obj
Output_softReset                                  CMakeFiles/kiibohd.elf.dir/Output/pjrcUSB/output_com.c.obj
                                                  CMakeFiles/kiibohd.elf.dir/Debug/cli/cli.c.obj
Output_sysCtrlSend_capability                     CMakeFiles/kiibohd.elf.dir/Output/pjrcUSB/output_com.c.obj
                                                  CMakeFiles/kiibohd.elf.dir/Macro/PartialMap/macro.c.obj
Output_toggleKbdProtocol_capability               CMakeFiles/kiibohd.elf.dir/Output/pjrcUSB/output_com.c.obj
                                                  CMakeFiles/kiibohd.elf.dir/Macro/PartialMap/macro.c.obj
Output_update_external_current                    CMakeFiles/kiibohd.elf.dir/Output/pjrcUSB/output_com.c.obj
                                                  CMakeFiles/kiibohd.elf.dir/Scan/UARTConnect/connect_scan.c.obj
Output_update_usb_current                         CMakeFiles/kiibohd.elf.dir/Output/pjrcUSB/output_com.c.obj
                                                  CMakeFiles/kiibohd.elf.dir/Output/pjrcUSB/arm/usb_dev.c.obj
Output_usbCodeSend_capability                     CMakeFiles/kiibohd.elf.dir/Output/pjrcUSB/output_com.c.obj
                                                  CMakeFiles/kiibohd.elf.dir/Macro/PartialMap/macro.c.obj
Output_usbMouse_capability                        CMakeFiles/kiibohd.elf.dir/Output/pjrcUSB/output_com.c.obj
                                                  CMakeFiles/kiibohd.elf.dir/Macro/PartialMap/macro.c.obj
ResetHandler                                      CMakeFiles/kiibohd.elf.dir/Lib/mk20dx.c.obj
ResultMacroList                                   CMakeFiles/kiibohd.elf.dir/Macro/PartialMap/macro.c.obj
                                                  CMakeFiles/kiibohd.elf.dir/Macro/PartialMap/trigger.c.obj
                                                  CMakeFiles/kiibohd.elf.dir/Macro/PartialMap/result.c.obj
ResultMacroRecordList                             CMakeFiles/kiibohd.elf.dir/Macro/PartialMap/macro.c.obj
                                                  CMakeFiles/kiibohd.elf.dir/Macro/PartialMap/result.c.obj
Result_add                                        CMakeFiles/kiibohd.elf.dir/Macro/PartialMap/result.c.obj
Result_process                                    CMakeFiles/kiibohd.elf.dir/Macro/PartialMap/result.c.obj
                                                  CMakeFiles/kiibohd.elf.dir/Macro/PartialMap/macro.c.obj
Result_setup                                      CMakeFiles/kiibohd.elf.dir/Macro/PartialMap/result.c.obj
                                                  CMakeFiles/kiibohd.elf.dir/Macro/PartialMap/macro.c.obj
SPI_write                                         CMakeFiles/kiibohd.elf.dir/Scan/STLcd/lcd_scan.c.obj
STLcdDefaultImage                                 CMakeFiles/kiibohd.elf.dir/Scan/STLcd/lcd_scan.c.obj
Scan_currentChange                                CMakeFiles/kiibohd.elf.dir/Scan/Infinity_Ergodox/scan_loop.c.obj
                                                  CMakeFiles/kiibohd.elf.dir/Output/pjrcUSB/output_com.c.obj
Scan_finishedWithMacro                            CMakeFiles/kiibohd.elf.dir/Scan/Infinity_Ergodox/scan_loop.c.obj
                                                  CMakeFiles/kiibohd.elf.dir/Macro/PartialMap/macro.c.obj
Scan_finishedWithOutput                           CMakeFiles/kiibohd.elf.dir/Scan/Infinity_Ergodox/scan_loop.c.obj
                                                  CMakeFiles/kiibohd.elf.dir/Output/pjrcUSB/output_com.c.obj
Scan_loop                                         CMakeFiles/kiibohd.elf.dir/Scan/Infinity_Ergodox/scan_loop.c.obj
                                                  CMakeFiles/kiibohd.elf.dir/main.c.obj
Scan_scanCount                                    CMakeFiles/kiibohd.elf.dir/Scan/Infinity_Ergodox/scan_loop.c.obj
Scan_setup                                        CMakeFiles/kiibohd.elf.dir/Scan/Infinity_Ergodox/scan_loop.c.obj
                                                  CMakeFiles/kiibohd.elf.dir/main.c.obj
TriggerMacroList                                  CMakeFiles/kiibohd.elf.dir/Macro/PartialMap/macro.c.obj
                                                  CMakeFiles/kiibohd.elf.dir/Macro/PartialMap/trigger.c.obj
TriggerMacroRecordList                            CMakeFiles/kiibohd.elf.dir/Macro/PartialMap/macro.c.obj
                                                  CMakeFiles/kiibohd.elf.dir/Macro/PartialMap/trigger.c.obj
Trigger_process                                   CMakeFiles/kiibohd.elf.dir/Macro/PartialMap/trigger.c.obj
                                                  CMakeFiles/kiibohd.elf.dir/Macro/PartialMap/macro.c.obj
Trigger_setup                                     CMakeFiles/kiibohd.elf.dir/Macro/PartialMap/trigger.c.obj
                                                  CMakeFiles/kiibohd.elf.dir/Macro/PartialMap/macro.c.obj
Trigger_state                                     CMakeFiles/kiibohd.elf.dir/Macro/PartialMap/trigger.c.obj
Trigger_update                                    CMakeFiles/kiibohd.elf.dir/Macro/PartialMap/trigger.c.obj
USBInit_Ticks                                     CMakeFiles/kiibohd.elf.dir/Output/pjrcUSB/output_com.c.obj
                                                  CMakeFiles/kiibohd.elf.dir/Output/pjrcUSB/arm/usb_dev.c.obj
USBInit_TimeEnd                                   CMakeFiles/kiibohd.elf.dir/Output/pjrcUSB/output_com.c.obj
                                                  CMakeFiles/kiibohd.elf.dir/Output/pjrcUSB/arm/usb_dev.c.obj
USBInit_TimeStart                                 CMakeFiles/kiibohd.elf.dir/Output/pjrcUSB/output_com.c.obj
                                                  CMakeFiles/kiibohd.elf.dir/Output/pjrcUSB/arm/usb_dev.c.obj
USBKeys_Changed                                   CMakeFiles/kiibohd.elf.dir/Output/pjrcUSB/output_com.c.obj
                                                  CMakeFiles/kiibohd.elf.dir/Output/pjrcUSB/arm/usb_keyboard.c.obj
USBKeys_ConsCtrl                                  CMakeFiles/kiibohd.elf.dir/Output/pjrcUSB/output_com.c.obj
                                                  CMakeFiles/kiibohd.elf.dir/Output/pjrcUSB/arm/usb_keyboard.c.obj
USBKeys_Idle_Config                               CMakeFiles/kiibohd.elf.dir/Output/pjrcUSB/output_com.c.obj
                                                  CMakeFiles/kiibohd.elf.dir/Output/pjrcUSB/arm/usb_dev.c.obj
USBKeys_Idle_Count                                CMakeFiles/kiibohd.elf.dir/Output/pjrcUSB/output_com.c.obj
USBKeys_Idle_Expiry                               CMakeFiles/kiibohd.elf.dir/Output/pjrcUSB/output_com.c.obj
                                                  CMakeFiles/kiibohd.elf.dir/Output/pjrcUSB/arm/usb_dev.c.obj
USBKeys_Keys                                      CMakeFiles/kiibohd.elf.dir/Output/pjrcUSB/output_com.c.obj
                                                  CMakeFiles/kiibohd.elf.dir/Output/pjrcUSB/arm/usb_keyboard.c.obj
USBKeys_KeysCLI                                   CMakeFiles/kiibohd.elf.dir/Output/pjrcUSB/output_com.c.obj
USBKeys_LEDs                                      CMakeFiles/kiibohd.elf.dir/Output/pjrcUSB/output_com.c.obj
                                                  CMakeFiles/kiibohd.elf.dir/Output/pjrcUSB/arm/usb_dev.c.obj
                                                  CMakeFiles/kiibohd.elf.dir/Scan/STLcd/lcd_scan.c.obj
USBKeys_Modifiers                                 CMakeFiles/kiibohd.elf.dir/Output/pjrcUSB/output_com.c.obj
                                                  CMakeFiles/kiibohd.elf.dir/Output/pjrcUSB/arm/usb_keyboard.c.obj
                                                  CMakeFiles/kiibohd.elf.dir/Macro/PartialMap/macro.c.obj
USBKeys_ModifiersCLI                              CMakeFiles/kiibohd.elf.dir/Output/pjrcUSB/output_com.c.obj
USBKeys_Protocol                                  CMakeFiles/kiibohd.elf.dir/Output/pjrcUSB/output_com.c.obj
                                                  CMakeFiles/kiibohd.elf.dir/Output/pjrcUSB/arm/usb_keyboard.c.obj
                                                  CMakeFiles/kiibohd.elf.dir/Output/pjrcUSB/arm/usb_dev.c.obj
USBKeys_Sent                                      CMakeFiles/kiibohd.elf.dir/Output/pjrcUSB/output_com.c.obj
                                                  CMakeFiles/kiibohd.elf.dir/Macro/PartialMap/macro.c.obj
USBKeys_SentCLI                                   CMakeFiles/kiibohd.elf.dir/Output/pjrcUSB/output_com.c.obj
USBKeys_SysCtrl                                   CMakeFiles/kiibohd.elf.dir/Output/pjrcUSB/output_com.c.obj
                                                  CMakeFiles/kiibohd.elf.dir/Output/pjrcUSB/arm/usb_keyboard.c.obj
USBMouse_Buttons                                  CMakeFiles/kiibohd.elf.dir/Output/pjrcUSB/output_com.c.obj
                                                  CMakeFiles/kiibohd.elf.dir/Output/pjrcUSB/arm/usb_mouse.c.obj
USBMouse_Changed                                  CMakeFiles/kiibohd.elf.dir/Output/pjrcUSB/output_com.c.obj
                                                  CMakeFiles/kiibohd.elf.dir/Output/pjrcUSB/arm/usb_mouse.c.obj
USBMouse_Relative_x                               CMakeFiles/kiibohd.elf.dir/Output/pjrcUSB/output_com.c.obj
                                                  CMakeFiles/kiibohd.elf.dir/Output/pjrcUSB/arm/usb_mouse.c.obj
USBMouse_Relative_y                               CMakeFiles/kiibohd.elf.dir/Output/pjrcUSB/output_com.c.obj
                                                  CMakeFiles/kiibohd.elf.dir/Output/pjrcUSB/arm/usb_mouse.c.obj
__brkval                                          CMakeFiles/kiibohd.elf.dir/Lib/mk20dx.c.obj
_ebss                                             CMakeFiles/kiibohd.elf.dir/Lib/mk20dx.c.obj
_edata                                            CMakeFiles/kiibohd.elf.dir/Lib/mk20dx.c.obj
_estack                                           CMakeFiles/kiibohd.elf.dir/Lib/mk20dx.c.obj
_etext                                            CMakeFiles/kiibohd.elf.dir/Lib/mk20dx.c.obj
_print                                            CMakeFiles/kiibohd.elf.dir/Debug/print/print.c.obj
                                                  CMakeFiles/kiibohd.elf.dir/Debug/cli/cli.c.obj
                                                  CMakeFiles/kiibohd.elf.dir/Output/pjrcUSB/arm/usb_mouse.c.obj
                                                  CMakeFiles/kiibohd.elf.dir/Output/pjrcUSB/arm/usb_keyboard.c.obj
                                                  CMakeFiles/kiibohd.elf.dir/Output/pjrcUSB/arm/usb_dev.c.obj
                                                  CMakeFiles/kiibohd.elf.dir/Output/pjrcUSB/output_com.c.obj
                                                  CMakeFiles/kiibohd.elf.dir/Macro/PartialMap/trigger.c.obj
                                                  CMakeFiles/kiibohd.elf.dir/Macro/PartialMap/macro.c.obj
                                                  CMakeFiles/kiibohd.elf.dir/Scan/UARTConnect/connect_scan.c.obj
                                                  CMakeFiles/kiibohd.elf.dir/Scan/STLcd/lcd_scan.c.obj
                                                  CMakeFiles/kiibohd.elf.dir/Scan/MatrixARM/matrix_scan.c.obj
                                                  CMakeFiles/kiibohd.elf.dir/Scan/ISSILed/led_scan.c.obj
                                                  CMakeFiles/kiibohd.elf.dir/Lib/mk20dx.c.obj
_sbrk                                             CMakeFiles/kiibohd.elf.dir/Lib/mk20dx.c.obj
_sbss                                             CMakeFiles/kiibohd.elf.dir/Lib/mk20dx.c.obj
_sdata                                            CMakeFiles/kiibohd.elf.dir/Lib/mk20dx.c.obj
adc0_isr                                          CMakeFiles/kiibohd.elf.dir/Lib/mk20dx.c.obj
adc1_isr                                          CMakeFiles/kiibohd.elf.dir/Lib/mk20dx.c.obj
basicCLIDict                                      CMakeFiles/kiibohd.elf.dir/Debug/cli/cli.c.obj
basicCLIDictName                                  CMakeFiles/kiibohd.elf.dir/Debug/cli/cli.c.obj
bus_fault_default_isr                             CMakeFiles/kiibohd.elf.dir/Lib/mk20dx.c.obj
bus_fault_isr                                     CMakeFiles/kiibohd.elf.dir/Lib/mk20dx.c.obj
can0_bus_off_isr                                  CMakeFiles/kiibohd.elf.dir/Lib/mk20dx.c.obj
can0_error_isr                                    CMakeFiles/kiibohd.elf.dir/Lib/mk20dx.c.obj
can0_message_isr                                  CMakeFiles/kiibohd.elf.dir/Lib/mk20dx.c.obj
can0_rx_warn_isr                                  CMakeFiles/kiibohd.elf.dir/Lib/mk20dx.c.obj
can0_tx_warn_isr                                  CMakeFiles/kiibohd.elf.dir/Lib/mk20dx.c.obj
can0_wakeup_isr                                   CMakeFiles/kiibohd.elf.dir/Lib/mk20dx.c.obj
capListCLIDict_DescEntry                          CMakeFiles/kiibohd.elf.dir/Macro/PartialMap/macro.c.obj
capSelectCLIDict_DescEntry                        CMakeFiles/kiibohd.elf.dir/Macro/PartialMap/macro.c.obj
clearCLIDict_DescEntry                            CMakeFiles/kiibohd.elf.dir/Debug/cli/cli.c.obj
cliDebugCLIDict_DescEntry                         CMakeFiles/kiibohd.elf.dir/Debug/cli/cli.c.obj
cliFullToggleState                                CMakeFiles/kiibohd.elf.dir/Scan/STLcd/lcd_scan.c.obj
cliFunc_capList                                   CMakeFiles/kiibohd.elf.dir/Macro/PartialMap/macro.c.obj
cliFunc_capSelect                                 CMakeFiles/kiibohd.elf.dir/Macro/PartialMap/macro.c.obj
cliFunc_clear                                     CMakeFiles/kiibohd.elf.dir/Debug/cli/cli.c.obj
cliFunc_cliDebug                                  CMakeFiles/kiibohd.elf.dir/Debug/cli/cli.c.obj
cliFunc_connectCmd                                CMakeFiles/kiibohd.elf.dir/Scan/UARTConnect/connect_scan.c.obj
cliFunc_connectDbg                                CMakeFiles/kiibohd.elf.dir/Scan/UARTConnect/connect_scan.c.obj
cliFunc_connectIdl                                CMakeFiles/kiibohd.elf.dir/Scan/UARTConnect/connect_scan.c.obj
cliFunc_connectLst                                CMakeFiles/kiibohd.elf.dir/Scan/UARTConnect/connect_scan.c.obj
cliFunc_connectMst                                CMakeFiles/kiibohd.elf.dir/Scan/UARTConnect/connect_scan.c.obj
cliFunc_connectRst                                CMakeFiles/kiibohd.elf.dir/Scan/UARTConnect/connect_scan.c.obj
cliFunc_connectSts                                CMakeFiles/kiibohd.elf.dir/Scan/UARTConnect/connect_scan.c.obj
cliFunc_help                                      CMakeFiles/kiibohd.elf.dir/Debug/cli/cli.c.obj
cliFunc_i2cRecv                                   CMakeFiles/kiibohd.elf.dir/Scan/ISSILed/led_scan.c.obj
cliFunc_i2cSend                                   CMakeFiles/kiibohd.elf.dir/Scan/ISSILed/led_scan.c.obj
cliFunc_kbdProtocol                               CMakeFiles/kiibohd.elf.dir/Output/pjrcUSB/output_com.c.obj
cliFunc_keyHold                                   CMakeFiles/kiibohd.elf.dir/Macro/PartialMap/macro.c.obj
cliFunc_keyPress                                  CMakeFiles/kiibohd.elf.dir/Macro/PartialMap/macro.c.obj
cliFunc_keyRelease                                CMakeFiles/kiibohd.elf.dir/Macro/PartialMap/macro.c.obj
cliFunc_layerDebug                                CMakeFiles/kiibohd.elf.dir/Macro/PartialMap/macro.c.obj
cliFunc_layerList                                 CMakeFiles/kiibohd.elf.dir/Macro/PartialMap/macro.c.obj
cliFunc_layerState                                CMakeFiles/kiibohd.elf.dir/Macro/PartialMap/macro.c.obj
cliFunc_lcdCmd                                    CMakeFiles/kiibohd.elf.dir/Scan/STLcd/lcd_scan.c.obj
cliFunc_lcdColor                                  CMakeFiles/kiibohd.elf.dir/Scan/STLcd/lcd_scan.c.obj
cliFunc_lcdDisp                                   CMakeFiles/kiibohd.elf.dir/Scan/STLcd/lcd_scan.c.obj
cliFunc_lcdInit                                   CMakeFiles/kiibohd.elf.dir/Scan/STLcd/lcd_scan.c.obj
cliFunc_lcdTest                                   CMakeFiles/kiibohd.elf.dir/Scan/STLcd/lcd_scan.c.obj
cliFunc_led                                       CMakeFiles/kiibohd.elf.dir/Debug/cli/cli.c.obj
cliFunc_ledCtrl                                   CMakeFiles/kiibohd.elf.dir/Scan/ISSILed/led_scan.c.obj
cliFunc_ledRPage                                  CMakeFiles/kiibohd.elf.dir/Scan/ISSILed/led_scan.c.obj
cliFunc_ledStart                                  CMakeFiles/kiibohd.elf.dir/Scan/ISSILed/led_scan.c.obj
cliFunc_ledTest                                   CMakeFiles/kiibohd.elf.dir/Scan/ISSILed/led_scan.c.obj
cliFunc_ledWPage                                  CMakeFiles/kiibohd.elf.dir/Scan/ISSILed/led_scan.c.obj
cliFunc_ledZero                                   CMakeFiles/kiibohd.elf.dir/Scan/ISSILed/led_scan.c.obj
cliFunc_macroDebug                                CMakeFiles/kiibohd.elf.dir/Macro/PartialMap/macro.c.obj
cliFunc_macroList                                 CMakeFiles/kiibohd.elf.dir/Macro/PartialMap/macro.c.obj
cliFunc_macroProc                                 CMakeFiles/kiibohd.elf.dir/Macro/PartialMap/macro.c.obj
cliFunc_macroShow                                 CMakeFiles/kiibohd.elf.dir/Macro/PartialMap/macro.c.obj
cliFunc_macroStep                                 CMakeFiles/kiibohd.elf.dir/Macro/PartialMap/macro.c.obj
cliFunc_matrixDebug                               CMakeFiles/kiibohd.elf.dir/Scan/MatrixARM/matrix_scan.c.obj
cliFunc_matrixInfo                                CMakeFiles/kiibohd.elf.dir/Scan/MatrixARM/matrix_scan.c.obj
cliFunc_matrixState                               CMakeFiles/kiibohd.elf.dir/Scan/MatrixARM/matrix_scan.c.obj
cliFunc_outputDebug                               CMakeFiles/kiibohd.elf.dir/Output/pjrcUSB/output_com.c.obj
cliFunc_readLEDs                                  CMakeFiles/kiibohd.elf.dir/Output/pjrcUSB/output_com.c.obj
cliFunc_reload                                    CMakeFiles/kiibohd.elf.dir/Debug/cli/cli.c.obj
cliFunc_reset                                     CMakeFiles/kiibohd.elf.dir/Debug/cli/cli.c.obj
cliFunc_restart                                   CMakeFiles/kiibohd.elf.dir/Debug/cli/cli.c.obj
cliFunc_sendKeys                                  CMakeFiles/kiibohd.elf.dir/Output/pjrcUSB/output_com.c.obj
cliFunc_setKeys                                   CMakeFiles/kiibohd.elf.dir/Output/pjrcUSB/output_com.c.obj
cliFunc_setMod                                    CMakeFiles/kiibohd.elf.dir/Output/pjrcUSB/output_com.c.obj
cliFunc_usbInitTime                               CMakeFiles/kiibohd.elf.dir/Output/pjrcUSB/output_com.c.obj
cliFunc_version                                   CMakeFiles/kiibohd.elf.dir/Debug/cli/cli.c.obj
cliNormalReverseToggleState                       CMakeFiles/kiibohd.elf.dir/Scan/STLcd/lcd_scan.c.obj
cmp0_isr                                          CMakeFiles/kiibohd.elf.dir/Lib/mk20dx.c.obj
cmp1_isr                                          CMakeFiles/kiibohd.elf.dir/Lib/mk20dx.c.obj
cmp2_isr                                          CMakeFiles/kiibohd.elf.dir/Lib/mk20dx.c.obj
cmt_isr                                           CMakeFiles/kiibohd.elf.dir/Lib/mk20dx.c.obj
connectCmdCLIDict_DescEntry                       CMakeFiles/kiibohd.elf.dir/Scan/UARTConnect/connect_scan.c.obj
connectDbgCLIDict_DescEntry                       CMakeFiles/kiibohd.elf.dir/Scan/UARTConnect/connect_scan.c.obj
connectIdlCLIDict_DescEntry                       CMakeFiles/kiibohd.elf.dir/Scan/UARTConnect/connect_scan.c.obj
connectLstCLIDict_DescEntry                       CMakeFiles/kiibohd.elf.dir/Scan/UARTConnect/connect_scan.c.obj
connectMstCLIDict_DescEntry                       CMakeFiles/kiibohd.elf.dir/Scan/UARTConnect/connect_scan.c.obj
connectRstCLIDict_DescEntry                       CMakeFiles/kiibohd.elf.dir/Scan/UARTConnect/connect_scan.c.obj
connectStsCLIDict_DescEntry                       CMakeFiles/kiibohd.elf.dir/Scan/UARTConnect/connect_scan.c.obj
dac0_isr                                          CMakeFiles/kiibohd.elf.dir/Lib/mk20dx.c.obj
dac1_isr                                          CMakeFiles/kiibohd.elf.dir/Lib/mk20dx.c.obj
debugmonitor_isr                                  CMakeFiles/kiibohd.elf.dir/Lib/mk20dx.c.obj
default_scanMap                                   CMakeFiles/kiibohd.elf.dir/Macro/PartialMap/macro.c.obj
default_tl_0x02                                   CMakeFiles/kiibohd.elf.dir/Macro/PartialMap/macro.c.obj
default_tl_0x03                                   CMakeFiles/kiibohd.elf.dir/Macro/PartialMap/macro.c.obj
default_tl_0x04                                   CMakeFiles/kiibohd.elf.dir/Macro/PartialMap/macro.c.obj
default_tl_0x05                                   CMakeFiles/kiibohd.elf.dir/Macro/PartialMap/macro.c.obj
default_tl_0x06                                   CMakeFiles/kiibohd.elf.dir/Macro/PartialMap/macro.c.obj
default_tl_0x07                                   CMakeFiles/kiibohd.elf.dir/Macro/PartialMap/macro.c.obj
default_tl_0x08                                   CMakeFiles/kiibohd.elf.dir/Macro/PartialMap/macro.c.obj
default_tl_0x09                                   CMakeFiles/kiibohd.elf.dir/Macro/PartialMap/macro.c.obj
default_tl_0x0A                                   CMakeFiles/kiibohd.elf.dir/Macro/PartialMap/macro.c.obj
default_tl_0x0B                                   CMakeFiles/kiibohd.elf.dir/Macro/PartialMap/macro.c.obj
default_tl_0x0C                                   CMakeFiles/kiibohd.elf.dir/Macro/PartialMap/macro.c.obj
default_tl_0x0D                                   CMakeFiles/kiibohd.elf.dir/Macro/PartialMap/macro.c.obj
default_tl_0x0E                                   CMakeFiles/kiibohd.elf.dir/Macro/PartialMap/macro.c.obj
default_tl_0x0F                                   CMakeFiles/kiibohd.elf.dir/Macro/PartialMap/macro.c.obj
default_tl_0x10                                   CMakeFiles/kiibohd.elf.dir/Macro/PartialMap/macro.c.obj
default_tl_0x11                                   CMakeFiles/kiibohd.elf.dir/Macro/PartialMap/macro.c.obj
default_tl_0x12                                   CMakeFiles/kiibohd.elf.dir/Macro/PartialMap/macro.c.obj
default_tl_0x13                                   CMakeFiles/kiibohd.elf.dir/Macro/PartialMap/macro.c.obj
default_tl_0x14                                   CMakeFiles/kiibohd.elf.dir/Macro/PartialMap/macro.c.obj
default_tl_0x15                                   CMakeFiles/kiibohd.elf.dir/Macro/PartialMap/macro.c.obj
default_tl_0x16                                   CMakeFiles/kiibohd.elf.dir/Macro/PartialMap/macro.c.obj
default_tl_0x17                                   CMakeFiles/kiibohd.elf.dir/Macro/PartialMap/macro.c.obj
default_tl_0x18                                   CMakeFiles/kiibohd.elf.dir/Macro/PartialMap/macro.c.obj
default_tl_0x19                                   CMakeFiles/kiibohd.elf.dir/Macro/PartialMap/macro.c.obj
default_tl_0x1A                                   CMakeFiles/kiibohd.elf.dir/Macro/PartialMap/macro.c.obj
default_tl_0x1B                                   CMakeFiles/kiibohd.elf.dir/Macro/PartialMap/macro.c.obj
default_tl_0x1C                                   CMakeFiles/kiibohd.elf.dir/Macro/PartialMap/macro.c.obj
default_tl_0x1D                                   CMakeFiles/kiibohd.elf.dir/Macro/PartialMap/macro.c.obj
default_tl_0x1E                                   CMakeFiles/kiibohd.elf.dir/Macro/PartialMap/macro.c.obj
default_tl_0x1F                                   CMakeFiles/kiibohd.elf.dir/Macro/PartialMap/macro.c.obj
default_tl_0x20                                   CMakeFiles/kiibohd.elf.dir/Macro/PartialMap/macro.c.obj
default_tl_0x21                                   CMakeFiles/kiibohd.elf.dir/Macro/PartialMap/macro.c.obj
default_tl_0x22                                   CMakeFiles/kiibohd.elf.dir/Macro/PartialMap/macro.c.obj
default_tl_0x23                                   CMakeFiles/kiibohd.elf.dir/Macro/PartialMap/macro.c.obj
default_tl_0x24                                   CMakeFiles/kiibohd.elf.dir/Macro/PartialMap/macro.c.obj
default_tl_0x25                                   CMakeFiles/kiibohd.elf.dir/Macro/PartialMap/macro.c.obj
default_tl_0x26                                   CMakeFiles/kiibohd.elf.dir/Macro/PartialMap/macro.c.obj
default_tl_0x27                                   CMakeFiles/kiibohd.elf.dir/Macro/PartialMap/macro.c.obj
default_tl_0x28                                   CMakeFiles/kiibohd.elf.dir/Macro/PartialMap/macro.c.obj
default_tl_0x29                                   CMakeFiles/kiibohd.elf.dir/Macro/PartialMap/macro.c.obj
default_tl_0x2A                                   CMakeFiles/kiibohd.elf.dir/Macro/PartialMap/macro.c.obj
default_tl_0x2B                                   CMakeFiles/kiibohd.elf.dir/Macro/PartialMap/macro.c.obj
default_tl_0x2C                                   CMakeFiles/kiibohd.elf.dir/Macro/PartialMap/macro.c.obj
default_tl_0x2D                                   CMakeFiles/kiibohd.elf.dir/Macro/PartialMap/macro.c.obj
default_tl_0x2E                                   CMakeFiles/kiibohd.elf.dir/Macro/PartialMap/macro.c.obj
default_tl_0x2F                                   CMakeFiles/kiibohd.elf.dir/Macro/PartialMap/macro.c.obj
default_tl_0x30                                   CMakeFiles/kiibohd.elf.dir/Macro/PartialMap/macro.c.obj
default_tl_0x31                                   CMakeFiles/kiibohd.elf.dir/Macro/PartialMap/macro.c.obj
default_tl_0x32                                   CMakeFiles/kiibohd.elf.dir/Macro/PartialMap/macro.c.obj
default_tl_0x33                                   CMakeFiles/kiibohd.elf.dir/Macro/PartialMap/macro.c.obj
default_tl_0x34                                   CMakeFiles/kiibohd.elf.dir/Macro/PartialMap/macro.c.obj
default_tl_0x35                                   CMakeFiles/kiibohd.elf.dir/Macro/PartialMap/macro.c.obj
default_tl_0x36                                   CMakeFiles/kiibohd.elf.dir/Macro/PartialMap/macro.c.obj
default_tl_0x37                                   CMakeFiles/kiibohd.elf.dir/Macro/PartialMap/macro.c.obj
default_tl_0x38                                   CMakeFiles/kiibohd.elf.dir/Macro/PartialMap/macro.c.obj
default_tl_0x39                                   CMakeFiles/kiibohd.elf.dir/Macro/PartialMap/macro.c.obj
default_tl_0x3A                                   CMakeFiles/kiibohd.elf.dir/Macro/PartialMap/macro.c.obj
default_tl_0x3B                                   CMakeFiles/kiibohd.elf.dir/Macro/PartialMap/macro.c.obj
default_tl_0x3C                                   CMakeFiles/kiibohd.elf.dir/Macro/PartialMap/macro.c.obj
default_tl_0x3D                                   CMakeFiles/kiibohd.elf.dir/Macro/PartialMap/macro.c.obj
default_tl_0x3E                                   CMakeFiles/kiibohd.elf.dir/Macro/PartialMap/macro.c.obj
default_tl_0x3F                                   CMakeFiles/kiibohd.elf.dir/Macro/PartialMap/macro.c.obj
default_tl_0x40                                   CMakeFiles/kiibohd.elf.dir/Macro/PartialMap/macro.c.obj
default_tl_0x41                                   CMakeFiles/kiibohd.elf.dir/Macro/PartialMap/macro.c.obj
default_tl_0x42                                   CMakeFiles/kiibohd.elf.dir/Macro/PartialMap/macro.c.obj
default_tl_0x43                                   CMakeFiles/kiibohd.elf.dir/Macro/PartialMap/macro.c.obj
default_tl_0x44                                   CMakeFiles/kiibohd.elf.dir/Macro/PartialMap/macro.c.obj
default_tl_0x45                                   CMakeFiles/kiibohd.elf.dir/Macro/PartialMap/macro.c.obj
default_tl_0x46                                   CMakeFiles/kiibohd.elf.dir/Macro/PartialMap/macro.c.obj
default_tl_0x47                                   CMakeFiles/kiibohd.elf.dir/Macro/PartialMap/macro.c.obj
default_tl_0x48                                   CMakeFiles/kiibohd.elf.dir/Macro/PartialMap/macro.c.obj
default_tl_0x49                                   CMakeFiles/kiibohd.elf.dir/Macro/PartialMap/macro.c.obj
default_tl_0x4A                                   CMakeFiles/kiibohd.elf.dir/Macro/PartialMap/macro.c.obj
default_tl_0x4B                                   CMakeFiles/kiibohd.elf.dir/Macro/PartialMap/macro.c.obj
default_tl_0x4C                                   CMakeFiles/kiibohd.elf.dir/Macro/PartialMap/macro.c.obj
default_tl_0x4D                                   CMakeFiles/kiibohd.elf.dir/Macro/PartialMap/macro.c.obj
default_tl_0x4E                                   CMakeFiles/kiibohd.elf.dir/Macro/PartialMap/macro.c.obj
default_tl_0x4F                                   CMakeFiles/kiibohd.elf.dir/Macro/PartialMap/macro.c.obj
default_tl_0x50                                   CMakeFiles/kiibohd.elf.dir/Macro/PartialMap/macro.c.obj
default_tl_0x51                                   CMakeFiles/kiibohd.elf.dir/Macro/PartialMap/macro.c.obj
default_tl_0x52                                   CMakeFiles/kiibohd.elf.dir/Macro/PartialMap/macro.c.obj
default_tl_0x53                                   CMakeFiles/kiibohd.elf.dir/Macro/PartialMap/macro.c.obj
default_tl_0x54                                   CMakeFiles/kiibohd.elf.dir/Macro/PartialMap/macro.c.obj
default_tl_0x55                                   CMakeFiles/kiibohd.elf.dir/Macro/PartialMap/macro.c.obj
default_tl_0x56                                   CMakeFiles/kiibohd.elf.dir/Macro/PartialMap/macro.c.obj
default_tl_0x57                                   CMakeFiles/kiibohd.elf.dir/Macro/PartialMap/macro.c.obj
default_tl_0x58                                   CMakeFiles/kiibohd.elf.dir/Macro/PartialMap/macro.c.obj
default_tl_0x59                                   CMakeFiles/kiibohd.elf.dir/Macro/PartialMap/macro.c.obj
delay                                             CMakeFiles/kiibohd.elf.dir/Lib/delay.c.obj
                                                  CMakeFiles/kiibohd.elf.dir/Output/pjrcUSB/arm/usb_dev.c.obj
                                                  CMakeFiles/kiibohd.elf.dir/Scan/UARTConnect/connect_scan.c.obj
                                                  CMakeFiles/kiibohd.elf.dir/Scan/ISSILed/led_scan.c.obj
dma_ch0_isr                                       CMakeFiles/kiibohd.elf.dir/Lib/mk20dx.c.obj
dma_ch10_isr                                      CMakeFiles/kiibohd.elf.dir/Lib/mk20dx.c.obj
dma_ch11_isr                                      CMakeFiles/kiibohd.elf.dir/Lib/mk20dx.c.obj
dma_ch12_isr                                      CMakeFiles/kiibohd.elf.dir/Lib/mk20dx.c.obj
dma_ch13_isr                                      CMakeFiles/kiibohd.elf.dir/Lib/mk20dx.c.obj
dma_ch14_isr                                      CMakeFiles/kiibohd.elf.dir/Lib/mk20dx.c.obj
dma_ch15_isr                                      CMakeFiles/kiibohd.elf.dir/Lib/mk20dx.c.obj
dma_ch1_isr                                       CMakeFiles/kiibohd.elf.dir/Lib/mk20dx.c.obj
dma_ch2_isr                                       CMakeFiles/kiibohd.elf.dir/Lib/mk20dx.c.obj
dma_ch3_isr                                       CMakeFiles/kiibohd.elf.dir/Lib/mk20dx.c.obj
dma_ch4_isr                                       CMakeFiles/kiibohd.elf.dir/Lib/mk20dx.c.obj
dma_ch5_isr                                       CMakeFiles/kiibohd.elf.dir/Lib/mk20dx.c.obj
dma_ch6_isr                                       CMakeFiles/kiibohd.elf.dir/Lib/mk20dx.c.obj
dma_ch7_isr                                       CMakeFiles/kiibohd.elf.dir/Lib/mk20dx.c.obj
dma_ch8_isr                                       CMakeFiles/kiibohd.elf.dir/Lib/mk20dx.c.obj
dma_ch9_isr                                       CMakeFiles/kiibohd.elf.dir/Lib/mk20dx.c.obj
dma_error_isr                                     CMakeFiles/kiibohd.elf.dir/Lib/mk20dx.c.obj
eqStr                                             CMakeFiles/kiibohd.elf.dir/Debug/print/print.c.obj
                                                  CMakeFiles/kiibohd.elf.dir/Debug/cli/cli.c.obj
errorLED                                          CMakeFiles/kiibohd.elf.dir/Debug/led/led.c.obj
                                                  CMakeFiles/kiibohd.elf.dir/Debug/cli/cli.c.obj
fault_isr                                         CMakeFiles/kiibohd.elf.dir/Lib/mk20dx.c.obj
flash_cmd_isr                                     CMakeFiles/kiibohd.elf.dir/Lib/mk20dx.c.obj
flash_error_isr                                   CMakeFiles/kiibohd.elf.dir/Lib/mk20dx.c.obj
ftm0_isr                                          CMakeFiles/kiibohd.elf.dir/Lib/mk20dx.c.obj
ftm1_isr                                          CMakeFiles/kiibohd.elf.dir/Lib/mk20dx.c.obj
ftm2_isr                                          CMakeFiles/kiibohd.elf.dir/Lib/mk20dx.c.obj
ftm3_isr                                          CMakeFiles/kiibohd.elf.dir/Lib/mk20dx.c.obj
gVectors                                          CMakeFiles/kiibohd.elf.dir/Lib/mk20dx.c.obj
hard_fault_default_isr                            CMakeFiles/kiibohd.elf.dir/Lib/mk20dx.c.obj
hard_fault_isr                                    CMakeFiles/kiibohd.elf.dir/Lib/mk20dx.c.obj
helpCLIDict_DescEntry                             CMakeFiles/kiibohd.elf.dir/Debug/cli/cli.c.obj
hex32ToStr16                                      CMakeFiles/kiibohd.elf.dir/Debug/print/print.c.obj
                                                  CMakeFiles/kiibohd.elf.dir/Output/pjrcUSB/arm/usb_dev.c.obj
hex32ToStr_op                                     CMakeFiles/kiibohd.elf.dir/Debug/print/print.c.obj
hexToStr_op                                       CMakeFiles/kiibohd.elf.dir/Debug/print/print.c.obj
i2c0_isr                                          CMakeFiles/kiibohd.elf.dir/Scan/ISSILed/led_scan.c.obj
                                                  CMakeFiles/kiibohd.elf.dir/Lib/mk20dx.c.obj
i2c1_isr                                          CMakeFiles/kiibohd.elf.dir/Lib/mk20dx.c.obj
i2c2_isr                                          CMakeFiles/kiibohd.elf.dir/Lib/mk20dx.c.obj
i2cRecvCLIDict_DescEntry                          CMakeFiles/kiibohd.elf.dir/Scan/ISSILed/led_scan.c.obj
i2cSendCLIDict_DescEntry                          CMakeFiles/kiibohd.elf.dir/Scan/ISSILed/led_scan.c.obj
i2s0_rx_isr                                       CMakeFiles/kiibohd.elf.dir/Lib/mk20dx.c.obj
i2s0_tx_isr                                       CMakeFiles/kiibohd.elf.dir/Lib/mk20dx.c.obj
init_errorLED                                     CMakeFiles/kiibohd.elf.dir/Debug/led/led.c.obj
                                                  CMakeFiles/kiibohd.elf.dir/Debug/cli/cli.c.obj
int16ToStr                                        CMakeFiles/kiibohd.elf.dir/Debug/print/print.c.obj
int32ToStr                                        CMakeFiles/kiibohd.elf.dir/Debug/print/print.c.obj
int8ToStr                                         CMakeFiles/kiibohd.elf.dir/Debug/print/print.c.obj
kbdProtocolCLIDict_DescEntry                      CMakeFiles/kiibohd.elf.dir/Output/pjrcUSB/output_com.c.obj
keyHoldCLIDict_DescEntry                          CMakeFiles/kiibohd.elf.dir/Macro/PartialMap/macro.c.obj
keyPressCLIDict_DescEntry                         CMakeFiles/kiibohd.elf.dir/Macro/PartialMap/macro.c.obj
keyReleaseCLIDict_DescEntry                       CMakeFiles/kiibohd.elf.dir/Macro/PartialMap/macro.c.obj
layer1_scanMap                                    CMakeFiles/kiibohd.elf.dir/Macro/PartialMap/macro.c.obj
layer1_tl_0x02                                    CMakeFiles/kiibohd.elf.dir/Macro/PartialMap/macro.c.obj
layer1_tl_0x03                                    CMakeFiles/kiibohd.elf.dir/Macro/PartialMap/macro.c.obj
layer1_tl_0x04                                    CMakeFiles/kiibohd.elf.dir/Macro/PartialMap/macro.c.obj
layer1_tl_0x05                                    CMakeFiles/kiibohd.elf.dir/Macro/PartialMap/macro.c.obj
layer1_tl_0x06                                    CMakeFiles/kiibohd.elf.dir/Macro/PartialMap/macro.c.obj
layer1_tl_0x07                                    CMakeFiles/kiibohd.elf.dir/Macro/PartialMap/macro.c.obj
layer1_tl_0x08                                    CMakeFiles/kiibohd.elf.dir/Macro/PartialMap/macro.c.obj
layer1_tl_0x09                                    CMakeFiles/kiibohd.elf.dir/Macro/PartialMap/macro.c.obj
layer1_tl_0x0A                                    CMakeFiles/kiibohd.elf.dir/Macro/PartialMap/macro.c.obj
layer1_tl_0x0B                                    CMakeFiles/kiibohd.elf.dir/Macro/PartialMap/macro.c.obj
layer1_tl_0x0C                                    CMakeFiles/kiibohd.elf.dir/Macro/PartialMap/macro.c.obj
layer1_tl_0x0D                                    CMakeFiles/kiibohd.elf.dir/Macro/PartialMap/macro.c.obj
layer1_tl_0x0E                                    CMakeFiles/kiibohd.elf.dir/Macro/PartialMap/macro.c.obj
layer1_tl_0x0F                                    CMakeFiles/kiibohd.elf.dir/Macro/PartialMap/macro.c.obj
layer1_tl_0x10                                    CMakeFiles/kiibohd.elf.dir/Macro/PartialMap/macro.c.obj
layer1_tl_0x11                                    CMakeFiles/kiibohd.elf.dir/Macro/PartialMap/macro.c.obj
layer1_tl_0x12                                    CMakeFiles/kiibohd.elf.dir/Macro/PartialMap/macro.c.obj
layer1_tl_0x13                                    CMakeFiles/kiibohd.elf.dir/Macro/PartialMap/macro.c.obj
layer1_tl_0x14                                    CMakeFiles/kiibohd.elf.dir/Macro/PartialMap/macro.c.obj
layer1_tl_0x15                                    CMakeFiles/kiibohd.elf.dir/Macro/PartialMap/macro.c.obj
layer1_tl_0x16                                    CMakeFiles/kiibohd.elf.dir/Macro/PartialMap/macro.c.obj
layer1_tl_0x17                                    CMakeFiles/kiibohd.elf.dir/Macro/PartialMap/macro.c.obj
layer1_tl_0x18                                    CMakeFiles/kiibohd.elf.dir/Macro/PartialMap/macro.c.obj
layer1_tl_0x19                                    CMakeFiles/kiibohd.elf.dir/Macro/PartialMap/macro.c.obj
layer1_tl_0x1A                                    CMakeFiles/kiibohd.elf.dir/Macro/PartialMap/macro.c.obj
layer1_tl_0x1B                                    CMakeFiles/kiibohd.elf.dir/Macro/PartialMap/macro.c.obj
layer1_tl_0x1C                                    CMakeFiles/kiibohd.elf.dir/Macro/PartialMap/macro.c.obj
layer1_tl_0x1D                                    CMakeFiles/kiibohd.elf.dir/Macro/PartialMap/macro.c.obj
layer1_tl_0x1E                                    CMakeFiles/kiibohd.elf.dir/Macro/PartialMap/macro.c.obj
layer1_tl_0x1F                                    CMakeFiles/kiibohd.elf.dir/Macro/PartialMap/macro.c.obj
layer1_tl_0x20                                    CMakeFiles/kiibohd.elf.dir/Macro/PartialMap/macro.c.obj
layer1_tl_0x21                                    CMakeFiles/kiibohd.elf.dir/Macro/PartialMap/macro.c.obj
layer1_tl_0x22                                    CMakeFiles/kiibohd.elf.dir/Macro/PartialMap/macro.c.obj
layer1_tl_0x23                                    CMakeFiles/kiibohd.elf.dir/Macro/PartialMap/macro.c.obj
layer1_tl_0x24                                    CMakeFiles/kiibohd.elf.dir/Macro/PartialMap/macro.c.obj
layer1_tl_0x25                                    CMakeFiles/kiibohd.elf.dir/Macro/PartialMap/macro.c.obj
layer1_tl_0x26                                    CMakeFiles/kiibohd.elf.dir/Macro/PartialMap/macro.c.obj
layer1_tl_0x27                                    CMakeFiles/kiibohd.elf.dir/Macro/PartialMap/macro.c.obj
layer1_tl_0x28                                    CMakeFiles/kiibohd.elf.dir/Macro/PartialMap/macro.c.obj
layer1_tl_0x29                                    CMakeFiles/kiibohd.elf.dir/Macro/PartialMap/macro.c.obj
layer1_tl_0x2A                                    CMakeFiles/kiibohd.elf.dir/Macro/PartialMap/macro.c.obj
layer1_tl_0x2B                                    CMakeFiles/kiibohd.elf.dir/Macro/PartialMap/macro.c.obj
layer1_tl_0x2C                                    CMakeFiles/kiibohd.elf.dir/Macro/PartialMap/macro.c.obj
layer1_tl_0x2D                                    CMakeFiles/kiibohd.elf.dir/Macro/PartialMap/macro.c.obj
layer1_tl_0x2E                                    CMakeFiles/kiibohd.elf.dir/Macro/PartialMap/macro.c.obj
layer1_tl_0x2F                                    CMakeFiles/kiibohd.elf.dir/Macro/PartialMap/macro.c.obj
layer1_tl_0x30                                    CMakeFiles/kiibohd.elf.dir/Macro/PartialMap/macro.c.obj
layer1_tl_0x31                                    CMakeFiles/kiibohd.elf.dir/Macro/PartialMap/macro.c.obj
layer1_tl_0x32                                    CMakeFiles/kiibohd.elf.dir/Macro/PartialMap/macro.c.obj
layer1_tl_0x33                                    CMakeFiles/kiibohd.elf.dir/Macro/PartialMap/macro.c.obj
layer1_tl_0x34                                    CMakeFiles/kiibohd.elf.dir/Macro/PartialMap/macro.c.obj
layer2_scanMap                                    CMakeFiles/kiibohd.elf.dir/Macro/PartialMap/macro.c.obj
layer2_tl_0x08                                    CMakeFiles/kiibohd.elf.dir/Macro/PartialMap/macro.c.obj
layer2_tl_0x09                                    CMakeFiles/kiibohd.elf.dir/Macro/PartialMap/macro.c.obj
layer2_tl_0x0A                                    CMakeFiles/kiibohd.elf.dir/Macro/PartialMap/macro.c.obj
layer2_tl_0x0B                                    CMakeFiles/kiibohd.elf.dir/Macro/PartialMap/macro.c.obj
layer2_tl_0x0C                                    CMakeFiles/kiibohd.elf.dir/Macro/PartialMap/macro.c.obj
layer2_tl_0x0D                                    CMakeFiles/kiibohd.elf.dir/Macro/PartialMap/macro.c.obj
layer2_tl_0x0E                                    CMakeFiles/kiibohd.elf.dir/Macro/PartialMap/macro.c.obj
layer2_tl_0x0F                                    CMakeFiles/kiibohd.elf.dir/Macro/PartialMap/macro.c.obj
layer2_tl_0x10                                    CMakeFiles/kiibohd.elf.dir/Macro/PartialMap/macro.c.obj
layer2_tl_0x11                                    CMakeFiles/kiibohd.elf.dir/Macro/PartialMap/macro.c.obj
layer2_tl_0x12                                    CMakeFiles/kiibohd.elf.dir/Macro/PartialMap/macro.c.obj
layer2_tl_0x13                                    CMakeFiles/kiibohd.elf.dir/Macro/PartialMap/macro.c.obj
layer2_tl_0x14                                    CMakeFiles/kiibohd.elf.dir/Macro/PartialMap/macro.c.obj
layer2_tl_0x15                                    CMakeFiles/kiibohd.elf.dir/Macro/PartialMap/macro.c.obj
layer2_tl_0x16                                    CMakeFiles/kiibohd.elf.dir/Macro/PartialMap/macro.c.obj
layer2_tl_0x17                                    CMakeFiles/kiibohd.elf.dir/Macro/PartialMap/macro.c.obj
layer2_tl_0x18                                    CMakeFiles/kiibohd.elf.dir/Macro/PartialMap/macro.c.obj
layer2_tl_0x19                                    CMakeFiles/kiibohd.elf.dir/Macro/PartialMap/macro.c.obj
layer2_tl_0x1A                                    CMakeFiles/kiibohd.elf.dir/Macro/PartialMap/macro.c.obj
layer2_tl_0x1B                                    CMakeFiles/kiibohd.elf.dir/Macro/PartialMap/macro.c.obj
layer2_tl_0x1C                                    CMakeFiles/kiibohd.elf.dir/Macro/PartialMap/macro.c.obj
layer2_tl_0x1D                                    CMakeFiles/kiibohd.elf.dir/Macro/PartialMap/macro.c.obj
layer2_tl_0x1E                                    CMakeFiles/kiibohd.elf.dir/Macro/PartialMap/macro.c.obj
layer2_tl_0x1F                                    CMakeFiles/kiibohd.elf.dir/Macro/PartialMap/macro.c.obj
layer2_tl_0x20                                    CMakeFiles/kiibohd.elf.dir/Macro/PartialMap/macro.c.obj
layer2_tl_0x21                                    CMakeFiles/kiibohd.elf.dir/Macro/PartialMap/macro.c.obj
layer2_tl_0x22                                    CMakeFiles/kiibohd.elf.dir/Macro/PartialMap/macro.c.obj
layer2_tl_0x23                                    CMakeFiles/kiibohd.elf.dir/Macro/PartialMap/macro.c.obj
layer2_tl_0x24                                    CMakeFiles/kiibohd.elf.dir/Macro/PartialMap/macro.c.obj
layer2_tl_0x25                                    CMakeFiles/kiibohd.elf.dir/Macro/PartialMap/macro.c.obj
layer2_tl_0x26                                    CMakeFiles/kiibohd.elf.dir/Macro/PartialMap/macro.c.obj
layer2_tl_0x27                                    CMakeFiles/kiibohd.elf.dir/Macro/PartialMap/macro.c.obj
layer2_tl_0x28                                    CMakeFiles/kiibohd.elf.dir/Macro/PartialMap/macro.c.obj
layer2_tl_0x29                                    CMakeFiles/kiibohd.elf.dir/Macro/PartialMap/macro.c.obj
layer2_tl_0x2A                                    CMakeFiles/kiibohd.elf.dir/Macro/PartialMap/macro.c.obj
layer2_tl_0x2B                                    CMakeFiles/kiibohd.elf.dir/Macro/PartialMap/macro.c.obj
layer2_tl_0x2C                                    CMakeFiles/kiibohd.elf.dir/Macro/PartialMap/macro.c.obj
layer2_tl_0x2D                                    CMakeFiles/kiibohd.elf.dir/Macro/PartialMap/macro.c.obj
layer2_tl_0x2E                                    CMakeFiles/kiibohd.elf.dir/Macro/PartialMap/macro.c.obj
layer2_tl_0x2F                                    CMakeFiles/kiibohd.elf.dir/Macro/PartialMap/macro.c.obj
layer2_tl_0x30                                    CMakeFiles/kiibohd.elf.dir/Macro/PartialMap/macro.c.obj
layer2_tl_0x31                                    CMakeFiles/kiibohd.elf.dir/Macro/PartialMap/macro.c.obj
layer2_tl_0x32                                    CMakeFiles/kiibohd.elf.dir/Macro/PartialMap/macro.c.obj
layer2_tl_0x33                                    CMakeFiles/kiibohd.elf.dir/Macro/PartialMap/macro.c.obj
layer2_tl_0x34                                    CMakeFiles/kiibohd.elf.dir/Macro/PartialMap/macro.c.obj
layer2_tl_0x35                                    CMakeFiles/kiibohd.elf.dir/Macro/PartialMap/macro.c.obj
layerDebugCLIDict_DescEntry                       CMakeFiles/kiibohd.elf.dir/Macro/PartialMap/macro.c.obj
layerDebugMode                                    CMakeFiles/kiibohd.elf.dir/Macro/PartialMap/macro.c.obj
layerListCLIDict_DescEntry                        CMakeFiles/kiibohd.elf.dir/Macro/PartialMap/macro.c.obj
layerStateCLIDict_DescEntry                       CMakeFiles/kiibohd.elf.dir/Macro/PartialMap/macro.c.obj
lcdCLIDict                                        CMakeFiles/kiibohd.elf.dir/Scan/STLcd/lcd_scan.c.obj
lcdCLIDictName                                    CMakeFiles/kiibohd.elf.dir/Scan/STLcd/lcd_scan.c.obj
lcdCmdCLIDict_DescEntry                           CMakeFiles/kiibohd.elf.dir/Scan/STLcd/lcd_scan.c.obj
lcdColorCLIDict_DescEntry                         CMakeFiles/kiibohd.elf.dir/Scan/STLcd/lcd_scan.c.obj
lcdDispCLIDict_DescEntry                          CMakeFiles/kiibohd.elf.dir/Scan/STLcd/lcd_scan.c.obj
lcdInitCLIDict_DescEntry                          CMakeFiles/kiibohd.elf.dir/Scan/STLcd/lcd_scan.c.obj
lcdTestCLIDict_DescEntry                          CMakeFiles/kiibohd.elf.dir/Scan/STLcd/lcd_scan.c.obj
ledCLIDict                                        CMakeFiles/kiibohd.elf.dir/Scan/ISSILed/led_scan.c.obj
ledCLIDictName                                    CMakeFiles/kiibohd.elf.dir/Scan/ISSILed/led_scan.c.obj
ledCLIDict_DescEntry                              CMakeFiles/kiibohd.elf.dir/Debug/cli/cli.c.obj
ledCtrlCLIDict_DescEntry                          CMakeFiles/kiibohd.elf.dir/Scan/ISSILed/led_scan.c.obj
ledRPageCLIDict_DescEntry                         CMakeFiles/kiibohd.elf.dir/Scan/ISSILed/led_scan.c.obj
ledStartCLIDict_DescEntry                         CMakeFiles/kiibohd.elf.dir/Scan/ISSILed/led_scan.c.obj
ledTestCLIDict_DescEntry                          CMakeFiles/kiibohd.elf.dir/Scan/ISSILed/led_scan.c.obj
ledWPageCLIDict_DescEntry                         CMakeFiles/kiibohd.elf.dir/Scan/ISSILed/led_scan.c.obj
ledZeroCLIDict_DescEntry                          CMakeFiles/kiibohd.elf.dir/Scan/ISSILed/led_scan.c.obj
lenStr                                            CMakeFiles/kiibohd.elf.dir/Debug/print/print.c.obj
                                                  CMakeFiles/kiibohd.elf.dir/Debug/cli/cli.c.obj
low_voltage_isr                                   CMakeFiles/kiibohd.elf.dir/Lib/mk20dx.c.obj
lptmr_isr                                         CMakeFiles/kiibohd.elf.dir/Lib/mk20dx.c.obj
macroCLIDict                                      CMakeFiles/kiibohd.elf.dir/Macro/PartialMap/macro.c.obj
macroCLIDictName                                  CMakeFiles/kiibohd.elf.dir/Macro/PartialMap/macro.c.obj
macroDebugCLIDict_DescEntry                       CMakeFiles/kiibohd.elf.dir/Macro/PartialMap/macro.c.obj
macroDebugMode                                    CMakeFiles/kiibohd.elf.dir/Macro/PartialMap/macro.c.obj
macroDebugShowResult                              CMakeFiles/kiibohd.elf.dir/Macro/PartialMap/macro.c.obj
macroDebugShowTrigger                             CMakeFiles/kiibohd.elf.dir/Macro/PartialMap/macro.c.obj
macroInterconnectCache                            CMakeFiles/kiibohd.elf.dir/Macro/PartialMap/macro.c.obj
macroInterconnectCacheSize                        CMakeFiles/kiibohd.elf.dir/Macro/PartialMap/macro.c.obj
macroLayerIndexStack                              CMakeFiles/kiibohd.elf.dir/Macro/PartialMap/macro.c.obj
                                                  CMakeFiles/kiibohd.elf.dir/Scan/STLcd/lcd_scan.c.obj
macroLayerIndexStackSize                          CMakeFiles/kiibohd.elf.dir/Macro/PartialMap/macro.c.obj
                                                  CMakeFiles/kiibohd.elf.dir/Scan/STLcd/lcd_scan.c.obj
macroListCLIDict_DescEntry                        CMakeFiles/kiibohd.elf.dir/Macro/PartialMap/macro.c.obj
macroPauseMode                                    CMakeFiles/kiibohd.elf.dir/Macro/PartialMap/macro.c.obj
macroProcCLIDict_DescEntry                        CMakeFiles/kiibohd.elf.dir/Macro/PartialMap/macro.c.obj
macroResultMacroPendingList                       CMakeFiles/kiibohd.elf.dir/Macro/PartialMap/result.c.obj
                                                  CMakeFiles/kiibohd.elf.dir/Macro/PartialMap/macro.c.obj
macroShowCLIDict_DescEntry                        CMakeFiles/kiibohd.elf.dir/Macro/PartialMap/macro.c.obj
macroStepCLIDict_DescEntry                        CMakeFiles/kiibohd.elf.dir/Macro/PartialMap/macro.c.obj
macroStepCounter                                  CMakeFiles/kiibohd.elf.dir/Macro/PartialMap/macro.c.obj
macroTriggerListBuffer                            CMakeFiles/kiibohd.elf.dir/Macro/PartialMap/macro.c.obj
                                                  CMakeFiles/kiibohd.elf.dir/Macro/PartialMap/trigger.c.obj
macroTriggerListBufferSize                        CMakeFiles/kiibohd.elf.dir/Macro/PartialMap/macro.c.obj
                                                  CMakeFiles/kiibohd.elf.dir/Macro/PartialMap/trigger.c.obj
macroTriggerListLayerCache                        CMakeFiles/kiibohd.elf.dir/Macro/PartialMap/macro.c.obj
macroTriggerMacroPendingList                      CMakeFiles/kiibohd.elf.dir/Macro/PartialMap/trigger.c.obj
                                                  CMakeFiles/kiibohd.elf.dir/Macro/PartialMap/macro.c.obj
macroTriggerMacroPendingListSize                  CMakeFiles/kiibohd.elf.dir/Macro/PartialMap/trigger.c.obj
                                                  CMakeFiles/kiibohd.elf.dir/Macro/PartialMap/macro.c.obj
main                                              CMakeFiles/kiibohd.elf.dir/main.c.obj
                                                  CMakeFiles/kiibohd.elf.dir/Lib/mk20dx.c.obj
matrixCLIDict                                     CMakeFiles/kiibohd.elf.dir/Scan/MatrixARM/matrix_scan.c.obj
matrixCLIDictName                                 CMakeFiles/kiibohd.elf.dir/Scan/MatrixARM/matrix_scan.c.obj
matrixCurScans                                    CMakeFiles/kiibohd.elf.dir/Scan/MatrixARM/matrix_scan.c.obj
matrixDebugCLIDict_DescEntry                      CMakeFiles/kiibohd.elf.dir/Scan/MatrixARM/matrix_scan.c.obj
matrixDebugMode                                   CMakeFiles/kiibohd.elf.dir/Scan/MatrixARM/matrix_scan.c.obj
matrixDebugStateCounter                           CMakeFiles/kiibohd.elf.dir/Scan/MatrixARM/matrix_scan.c.obj
matrixInfoCLIDict_DescEntry                       CMakeFiles/kiibohd.elf.dir/Scan/MatrixARM/matrix_scan.c.obj
matrixMaxScans                                    CMakeFiles/kiibohd.elf.dir/Scan/MatrixARM/matrix_scan.c.obj
matrixPrevScans                                   CMakeFiles/kiibohd.elf.dir/Scan/MatrixARM/matrix_scan.c.obj
matrixStateCLIDict_DescEntry                      CMakeFiles/kiibohd.elf.dir/Scan/MatrixARM/matrix_scan.c.obj
mcg_isr                                           CMakeFiles/kiibohd.elf.dir/Lib/mk20dx.c.obj
mcm_isr                                           CMakeFiles/kiibohd.elf.dir/Lib/mk20dx.c.obj
memcmp                                            CMakeFiles/kiibohd.elf.dir/Lib/mk20dx.c.obj
memcpy                                            CMakeFiles/kiibohd.elf.dir/Lib/mk20dx.c.obj
                                                  CMakeFiles/kiibohd.elf.dir/Output/pjrcUSB/arm/usb_serial.c.obj
                                                  CMakeFiles/kiibohd.elf.dir/Output/pjrcUSB/arm/usb_keyboard.c.obj
                                                  CMakeFiles/kiibohd.elf.dir/Output/pjrcUSB/arm/usb_dev.c.obj
                                                  CMakeFiles/kiibohd.elf.dir/Macro/PartialMap/result.c.obj
                                                  CMakeFiles/kiibohd.elf.dir/Scan/STLcd/lcd_scan.c.obj
memmanage_fault_default_isr                       CMakeFiles/kiibohd.elf.dir/Lib/mk20dx.c.obj
memmanage_fault_isr                               CMakeFiles/kiibohd.elf.dir/Lib/mk20dx.c.obj
memset                                            CMakeFiles/kiibohd.elf.dir/Lib/mk20dx.c.obj
                                                  CMakeFiles/kiibohd.elf.dir/Scan/UARTConnect/connect_scan.c.obj
                                                  CMakeFiles/kiibohd.elf.dir/Scan/STLcd/lcd_scan.c.obj
                                                  CMakeFiles/kiibohd.elf.dir/Scan/ISSILed/led_scan.c.obj
micros                                            CMakeFiles/kiibohd.elf.dir/Lib/delay.c.obj
nmi_default_isr                                   CMakeFiles/kiibohd.elf.dir/Lib/mk20dx.c.obj
nmi_isr                                           CMakeFiles/kiibohd.elf.dir/Lib/mk20dx.c.obj
numToInt                                          CMakeFiles/kiibohd.elf.dir/Debug/print/print.c.obj
                                                  CMakeFiles/kiibohd.elf.dir/Output/pjrcUSB/output_com.c.obj
                                                  CMakeFiles/kiibohd.elf.dir/Macro/PartialMap/macro.c.obj
                                                  CMakeFiles/kiibohd.elf.dir/Scan/UARTConnect/connect_scan.c.obj
                                                  CMakeFiles/kiibohd.elf.dir/Scan/STLcd/lcd_scan.c.obj
                                                  CMakeFiles/kiibohd.elf.dir/Scan/MatrixARM/matrix_scan.c.obj
                                                  CMakeFiles/kiibohd.elf.dir/Scan/ISSILed/led_scan.c.obj
nvic_execution_priority                           CMakeFiles/kiibohd.elf.dir/Lib/mk20dx.c.obj
outputCLIDict                                     CMakeFiles/kiibohd.elf.dir/Output/pjrcUSB/output_com.c.obj
outputCLIDictName                                 CMakeFiles/kiibohd.elf.dir/Output/pjrcUSB/output_com.c.obj
outputDebugCLIDict_DescEntry                      CMakeFiles/kiibohd.elf.dir/Output/pjrcUSB/output_com.c.obj
pdb_isr                                           CMakeFiles/kiibohd.elf.dir/Lib/mk20dx.c.obj
pendablesrvreq_isr                                CMakeFiles/kiibohd.elf.dir/Lib/mk20dx.c.obj
pit0_isr                                          CMakeFiles/kiibohd.elf.dir/Lib/mk20dx.c.obj
pit1_isr                                          CMakeFiles/kiibohd.elf.dir/Lib/mk20dx.c.obj
pit2_isr                                          CMakeFiles/kiibohd.elf.dir/Lib/mk20dx.c.obj
pit3_isr                                          CMakeFiles/kiibohd.elf.dir/Lib/mk20dx.c.obj
porta_isr                                         CMakeFiles/kiibohd.elf.dir/Lib/mk20dx.c.obj
portb_isr                                         CMakeFiles/kiibohd.elf.dir/Lib/mk20dx.c.obj
portc_isr                                         CMakeFiles/kiibohd.elf.dir/Lib/mk20dx.c.obj
portd_isr                                         CMakeFiles/kiibohd.elf.dir/Lib/mk20dx.c.obj
porte_isr                                         CMakeFiles/kiibohd.elf.dir/Lib/mk20dx.c.obj
printHex32_op                                     CMakeFiles/kiibohd.elf.dir/Debug/print/print.c.obj
                                                  CMakeFiles/kiibohd.elf.dir/Debug/cli/cli.c.obj
                                                  CMakeFiles/kiibohd.elf.dir/Scan/UARTConnect/connect_scan.c.obj
                                                  CMakeFiles/kiibohd.elf.dir/Lib/mk20dx.c.obj
printHex_op                                       CMakeFiles/kiibohd.elf.dir/Debug/print/print.c.obj
                                                  CMakeFiles/kiibohd.elf.dir/Debug/cli/cli.c.obj
                                                  CMakeFiles/kiibohd.elf.dir/Output/pjrcUSB/arm/usb_keyboard.c.obj
                                                  CMakeFiles/kiibohd.elf.dir/Output/pjrcUSB/arm/usb_dev.c.obj
                                                  CMakeFiles/kiibohd.elf.dir/Output/pjrcUSB/output_com.c.obj
                                                  CMakeFiles/kiibohd.elf.dir/Macro/PartialMap/macro.c.obj
                                                  CMakeFiles/kiibohd.elf.dir/Scan/UARTConnect/connect_scan.c.obj
                                                  CMakeFiles/kiibohd.elf.dir/Scan/STLcd/lcd_scan.c.obj
                                                  CMakeFiles/kiibohd.elf.dir/Scan/MatrixARM/matrix_scan.c.obj
                                                  CMakeFiles/kiibohd.elf.dir/Scan/ISSILed/led_scan.c.obj
printInt16                                        CMakeFiles/kiibohd.elf.dir/Debug/print/print.c.obj
                                                  CMakeFiles/kiibohd.elf.dir/Output/pjrcUSB/output_com.c.obj
                                                  CMakeFiles/kiibohd.elf.dir/Macro/PartialMap/macro.c.obj
printInt32                                        CMakeFiles/kiibohd.elf.dir/Debug/print/print.c.obj
                                                  CMakeFiles/kiibohd.elf.dir/Output/pjrcUSB/output_com.c.obj
printInt8                                         CMakeFiles/kiibohd.elf.dir/Debug/print/print.c.obj
                                                  CMakeFiles/kiibohd.elf.dir/Output/pjrcUSB/output_com.c.obj
                                                  CMakeFiles/kiibohd.elf.dir/Macro/PartialMap/macro.c.obj
                                                  CMakeFiles/kiibohd.elf.dir/Scan/UARTConnect/connect_scan.c.obj
                                                  CMakeFiles/kiibohd.elf.dir/Scan/MatrixARM/matrix_scan.c.obj
printstrs                                         CMakeFiles/kiibohd.elf.dir/Debug/print/print.c.obj
                                                  CMakeFiles/kiibohd.elf.dir/Debug/cli/cli.c.obj
readLEDsCLIDict_DescEntry                         CMakeFiles/kiibohd.elf.dir/Output/pjrcUSB/output_com.c.obj
reloadCLIDict_DescEntry                           CMakeFiles/kiibohd.elf.dir/Debug/cli/cli.c.obj
resetCLIDict_DescEntry                            CMakeFiles/kiibohd.elf.dir/Debug/cli/cli.c.obj
restartCLIDict_DescEntry                          CMakeFiles/kiibohd.elf.dir/Debug/cli/cli.c.obj
revsStr                                           CMakeFiles/kiibohd.elf.dir/Debug/print/print.c.obj
rm0_guide                                         CMakeFiles/kiibohd.elf.dir/Macro/PartialMap/macro.c.obj
rm10_guide                                        CMakeFiles/kiibohd.elf.dir/Macro/PartialMap/macro.c.obj
rm11_guide                                        CMakeFiles/kiibohd.elf.dir/Macro/PartialMap/macro.c.obj
rm12_guide                                        CMakeFiles/kiibohd.elf.dir/Macro/PartialMap/macro.c.obj
rm13_guide                                        CMakeFiles/kiibohd.elf.dir/Macro/PartialMap/macro.c.obj
rm14_guide                                        CMakeFiles/kiibohd.elf.dir/Macro/PartialMap/macro.c.obj
rm15_guide                                        CMakeFiles/kiibohd.elf.dir/Macro/PartialMap/macro.c.obj
rm16_guide                                        CMakeFiles/kiibohd.elf.dir/Macro/PartialMap/macro.c.obj
rm17_guide                                        CMakeFiles/kiibohd.elf.dir/Macro/PartialMap/macro.c.obj
rm18_guide                                        CMakeFiles/kiibohd.elf.dir/Macro/PartialMap/macro.c.obj
rm19_guide                                        CMakeFiles/kiibohd.elf.dir/Macro/PartialMap/macro.c.obj
rm1_guide                                         CMakeFiles/kiibohd.elf.dir/Macro/PartialMap/macro.c.obj
rm20_guide                                        CMakeFiles/kiibohd.elf.dir/Macro/PartialMap/macro.c.obj
rm21_guide                                        CMakeFiles/kiibohd.elf.dir/Macro/PartialMap/macro.c.obj
rm22_guide                                        CMakeFiles/kiibohd.elf.dir/Macro/PartialMap/macro.c.obj
rm23_guide                                        CMakeFiles/kiibohd.elf.dir/Macro/PartialMap/macro.c.obj
rm24_guide                                        CMakeFiles/kiibohd.elf.dir/Macro/PartialMap/macro.c.obj
rm25_guide                                        CMakeFiles/kiibohd.elf.dir/Macro/PartialMap/macro.c.obj
rm26_guide                                        CMakeFiles/kiibohd.elf.dir/Macro/PartialMap/macro.c.obj
rm27_guide                                        CMakeFiles/kiibohd.elf.dir/Macro/PartialMap/macro.c.obj
rm28_guide                                        CMakeFiles/kiibohd.elf.dir/Macro/PartialMap/macro.c.obj
rm29_guide                                        CMakeFiles/kiibohd.elf.dir/Macro/PartialMap/macro.c.obj
rm2_guide                                         CMakeFiles/kiibohd.elf.dir/Macro/PartialMap/macro.c.obj
rm30_guide                                        CMakeFiles/kiibohd.elf.dir/Macro/PartialMap/macro.c.obj
rm31_guide                                        CMakeFiles/kiibohd.elf.dir/Macro/PartialMap/macro.c.obj
rm32_guide                                        CMakeFiles/kiibohd.elf.dir/Macro/PartialMap/macro.c.obj
rm33_guide                                        CMakeFiles/kiibohd.elf.dir/Macro/PartialMap/macro.c.obj
rm34_guide                                        CMakeFiles/kiibohd.elf.dir/Macro/PartialMap/macro.c.obj
rm35_guide                                        CMakeFiles/kiibohd.elf.dir/Macro/PartialMap/macro.c.obj
rm36_guide                                        CMakeFiles/kiibohd.elf.dir/Macro/PartialMap/macro.c.obj
rm37_guide                                        CMakeFiles/kiibohd.elf.dir/Macro/PartialMap/macro.c.obj
rm38_guide                                        CMakeFiles/kiibohd.elf.dir/Macro/PartialMap/macro.c.obj
rm39_guide                                        CMakeFiles/kiibohd.elf.dir/Macro/PartialMap/macro.c.obj
rm3_guide                                         CMakeFiles/kiibohd.elf.dir/Macro/PartialMap/macro.c.obj
rm40_guide                                        CMakeFiles/kiibohd.elf.dir/Macro/PartialMap/macro.c.obj
rm41_guide                                        CMakeFiles/kiibohd.elf.dir/Macro/PartialMap/macro.c.obj
rm42_guide                                        CMakeFiles/kiibohd.elf.dir/Macro/PartialMap/macro.c.obj
rm43_guide                                        CMakeFiles/kiibohd.elf.dir/Macro/PartialMap/macro.c.obj
rm44_guide                                        CMakeFiles/kiibohd.elf.dir/Macro/PartialMap/macro.c.obj
rm45_guide                                        CMakeFiles/kiibohd.elf.dir/Macro/PartialMap/macro.c.obj
rm46_guide                                        CMakeFiles/kiibohd.elf.dir/Macro/PartialMap/macro.c.obj
rm47_guide                                        CMakeFiles/kiibohd.elf.dir/Macro/PartialMap/macro.c.obj
rm48_guide                                        CMakeFiles/kiibohd.elf.dir/Macro/PartialMap/macro.c.obj
rm49_guide                                        CMakeFiles/kiibohd.elf.dir/Macro/PartialMap/macro.c.obj
rm4_guide                                         CMakeFiles/kiibohd.elf.dir/Macro/PartialMap/macro.c.obj
rm50_guide                                        CMakeFiles/kiibohd.elf.dir/Macro/PartialMap/macro.c.obj
rm51_guide                                        CMakeFiles/kiibohd.elf.dir/Macro/PartialMap/macro.c.obj
rm52_guide                                        CMakeFiles/kiibohd.elf.dir/Macro/PartialMap/macro.c.obj
rm53_guide                                        CMakeFiles/kiibohd.elf.dir/Macro/PartialMap/macro.c.obj
rm54_guide                                        CMakeFiles/kiibohd.elf.dir/Macro/PartialMap/macro.c.obj
rm55_guide                                        CMakeFiles/kiibohd.elf.dir/Macro/PartialMap/macro.c.obj
rm56_guide                                        CMakeFiles/kiibohd.elf.dir/Macro/PartialMap/macro.c.obj
rm57_guide                                        CMakeFiles/kiibohd.elf.dir/Macro/PartialMap/macro.c.obj
rm58_guide                                        CMakeFiles/kiibohd.elf.dir/Macro/PartialMap/macro.c.obj
rm59_guide                                        CMakeFiles/kiibohd.elf.dir/Macro/PartialMap/macro.c.obj
rm5_guide                                         CMakeFiles/kiibohd.elf.dir/Macro/PartialMap/macro.c.obj
rm60_guide                                        CMakeFiles/kiibohd.elf.dir/Macro/PartialMap/macro.c.obj
rm61_guide                                        CMakeFiles/kiibohd.elf.dir/Macro/PartialMap/macro.c.obj
rm62_guide                                        CMakeFiles/kiibohd.elf.dir/Macro/PartialMap/macro.c.obj
rm63_guide                                        CMakeFiles/kiibohd.elf.dir/Macro/PartialMap/macro.c.obj
rm64_guide                                        CMakeFiles/kiibohd.elf.dir/Macro/PartialMap/macro.c.obj
rm65_guide                                        CMakeFiles/kiibohd.elf.dir/Macro/PartialMap/macro.c.obj
rm66_guide                                        CMakeFiles/kiibohd.elf.dir/Macro/PartialMap/macro.c.obj
rm67_guide                                        CMakeFiles/kiibohd.elf.dir/Macro/PartialMap/macro.c.obj
rm68_guide                                        CMakeFiles/kiibohd.elf.dir/Macro/PartialMap/macro.c.obj
rm69_guide                                        CMakeFiles/kiibohd.elf.dir/Macro/PartialMap/macro.c.obj
rm6_guide                                         CMakeFiles/kiibohd.elf.dir/Macro/PartialMap/macro.c.obj
rm70_guide                                        CMakeFiles/kiibohd.elf.dir/Macro/PartialMap/macro.c.obj
rm71_guide                                        CMakeFiles/kiibohd.elf.dir/Macro/PartialMap/macro.c.obj
rm72_guide                                        CMakeFiles/kiibohd.elf.dir/Macro/PartialMap/macro.c.obj
rm73_guide                                        CMakeFiles/kiibohd.elf.dir/Macro/PartialMap/macro.c.obj
rm74_guide                                        CMakeFiles/kiibohd.elf.dir/Macro/PartialMap/macro.c.obj
rm75_guide                                        CMakeFiles/kiibohd.elf.dir/Macro/PartialMap/macro.c.obj
rm76_guide                                        CMakeFiles/kiibohd.elf.dir/Macro/PartialMap/macro.c.obj
rm77_guide                                        CMakeFiles/kiibohd.elf.dir/Macro/PartialMap/macro.c.obj
rm78_guide                                        CMakeFiles/kiibohd.elf.dir/Macro/PartialMap/macro.c.obj
rm79_guide                                        CMakeFiles/kiibohd.elf.dir/Macro/PartialMap/macro.c.obj
rm7_guide                                         CMakeFiles/kiibohd.elf.dir/Macro/PartialMap/macro.c.obj
rm80_guide                                        CMakeFiles/kiibohd.elf.dir/Macro/PartialMap/macro.c.obj
rm81_guide                                        CMakeFiles/kiibohd.elf.dir/Macro/PartialMap/macro.c.obj
rm82_guide                                        CMakeFiles/kiibohd.elf.dir/Macro/PartialMap/macro.c.obj
rm83_guide                                        CMakeFiles/kiibohd.elf.dir/Macro/PartialMap/macro.c.obj
rm84_guide                                        CMakeFiles/kiibohd.elf.dir/Macro/PartialMap/macro.c.obj
rm85_guide                                        CMakeFiles/kiibohd.elf.dir/Macro/PartialMap/macro.c.obj
rm86_guide                                        CMakeFiles/kiibohd.elf.dir/Macro/PartialMap/macro.c.obj
rm87_guide                                        CMakeFiles/kiibohd.elf.dir/Macro/PartialMap/macro.c.obj
rm88_guide                                        CMakeFiles/kiibohd.elf.dir/Macro/PartialMap/macro.c.obj
rm89_guide                                        CMakeFiles/kiibohd.elf.dir/Macro/PartialMap/macro.c.obj
rm8_guide                                         CMakeFiles/kiibohd.elf.dir/Macro/PartialMap/macro.c.obj
rm90_guide                                        CMakeFiles/kiibohd.elf.dir/Macro/PartialMap/macro.c.obj
rm91_guide                                        CMakeFiles/kiibohd.elf.dir/Macro/PartialMap/macro.c.obj
rm92_guide                                        CMakeFiles/kiibohd.elf.dir/Macro/PartialMap/macro.c.obj
rm9_guide                                         CMakeFiles/kiibohd.elf.dir/Macro/PartialMap/macro.c.obj
rtc_alarm_isr                                     CMakeFiles/kiibohd.elf.dir/Lib/mk20dx.c.obj
rtc_seconds_isr                                   CMakeFiles/kiibohd.elf.dir/Lib/mk20dx.c.obj
sdhc_isr                                          CMakeFiles/kiibohd.elf.dir/Lib/mk20dx.c.obj
sendKeysCLIDict_DescEntry                         CMakeFiles/kiibohd.elf.dir/Output/pjrcUSB/output_com.c.obj
setKeysCLIDict_DescEntry                          CMakeFiles/kiibohd.elf.dir/Output/pjrcUSB/output_com.c.obj
setModCLIDict_DescEntry                           CMakeFiles/kiibohd.elf.dir/Output/pjrcUSB/output_com.c.obj
software_isr                                      CMakeFiles/kiibohd.elf.dir/Lib/mk20dx.c.obj
spi0_isr                                          CMakeFiles/kiibohd.elf.dir/Lib/mk20dx.c.obj
spi1_isr                                          CMakeFiles/kiibohd.elf.dir/Lib/mk20dx.c.obj
spi2_isr                                          CMakeFiles/kiibohd.elf.dir/Lib/mk20dx.c.obj
string0                                           CMakeFiles/kiibohd.elf.dir/Output/pjrcUSB/arm/usb_desc.c.obj
svcall_isr                                        CMakeFiles/kiibohd.elf.dir/Lib/mk20dx.c.obj
sys_reset_to_loader_magic                         CMakeFiles/kiibohd.elf.dir/Lib/mk20dx.c.obj
                                                  CMakeFiles/kiibohd.elf.dir/Output/pjrcUSB/arm/usb_dev.c.obj
systick_default_isr                               CMakeFiles/kiibohd.elf.dir/Lib/mk20dx.c.obj
systick_isr                                       CMakeFiles/kiibohd.elf.dir/Lib/mk20dx.c.obj
systick_millis_count                              CMakeFiles/kiibohd.elf.dir/Lib/delay.c.obj
                                                  CMakeFiles/kiibohd.elf.dir/Output/pjrcUSB/arm/usb_dev.c.obj
                                                  CMakeFiles/kiibohd.elf.dir/Scan/UARTConnect/connect_scan.c.obj
                                                  CMakeFiles/kiibohd.elf.dir/Scan/MatrixARM/matrix_scan.c.obj
                                                  CMakeFiles/kiibohd.elf.dir/Scan/ISSILed/led_scan.c.obj
                                                  CMakeFiles/kiibohd.elf.dir/Lib/mk20dx.c.obj
tm0_guide                                         CMakeFiles/kiibohd.elf.dir/Macro/PartialMap/macro.c.obj
tm10_guide                                        CMakeFiles/kiibohd.elf.dir/Macro/PartialMap/macro.c.obj
tm11_guide                                        CMakeFiles/kiibohd.elf.dir/Macro/PartialMap/macro.c.obj
tm12_guide                                        CMakeFiles/kiibohd.elf.dir/Macro/PartialMap/macro.c.obj
tm13_guide                                        CMakeFiles/kiibohd.elf.dir/Macro/PartialMap/macro.c.obj
tm14_guide                                        CMakeFiles/kiibohd.elf.dir/Macro/PartialMap/macro.c.obj
tm15_guide                                        CMakeFiles/kiibohd.elf.dir/Macro/PartialMap/macro.c.obj
tm16_guide                                        CMakeFiles/kiibohd.elf.dir/Macro/PartialMap/macro.c.obj
tm17_guide                                        CMakeFiles/kiibohd.elf.dir/Macro/PartialMap/macro.c.obj
tm18_guide                                        CMakeFiles/kiibohd.elf.dir/Macro/PartialMap/macro.c.obj
tm19_guide                                        CMakeFiles/kiibohd.elf.dir/Macro/PartialMap/macro.c.obj
tm1_guide                                         CMakeFiles/kiibohd.elf.dir/Macro/PartialMap/macro.c.obj
tm20_guide                                        CMakeFiles/kiibohd.elf.dir/Macro/PartialMap/macro.c.obj
tm21_guide                                        CMakeFiles/kiibohd.elf.dir/Macro/PartialMap/macro.c.obj
tm22_guide                                        CMakeFiles/kiibohd.elf.dir/Macro/PartialMap/macro.c.obj
tm23_guide                                        CMakeFiles/kiibohd.elf.dir/Macro/PartialMap/macro.c.obj
tm24_guide                                        CMakeFiles/kiibohd.elf.dir/Macro/PartialMap/macro.c.obj
tm25_guide                                        CMakeFiles/kiibohd.elf.dir/Macro/PartialMap/macro.c.obj
tm26_guide                                        CMakeFiles/kiibohd.elf.dir/Macro/PartialMap/macro.c.obj
tm27_guide                                        CMakeFiles/kiibohd.elf.dir/Macro/PartialMap/macro.c.obj
tm28_guide                                        CMakeFiles/kiibohd.elf.dir/Macro/PartialMap/macro.c.obj
tm29_guide                                        CMakeFiles/kiibohd.elf.dir/Macro/PartialMap/macro.c.obj
tm2_guide                                         CMakeFiles/kiibohd.elf.dir/Macro/PartialMap/macro.c.obj
tm30_guide                                        CMakeFiles/kiibohd.elf.dir/Macro/PartialMap/macro.c.obj
tm31_guide                                        CMakeFiles/kiibohd.elf.dir/Macro/PartialMap/macro.c.obj
tm32_guide                                        CMakeFiles/kiibohd.elf.dir/Macro/PartialMap/macro.c.obj
tm33_guide                                        CMakeFiles/kiibohd.elf.dir/Macro/PartialMap/macro.c.obj
tm34_guide                                        CMakeFiles/kiibohd.elf.dir/Macro/PartialMap/macro.c.obj
tm35_guide                                        CMakeFiles/kiibohd.elf.dir/Macro/PartialMap/macro.c.obj
tm36_guide                                        CMakeFiles/kiibohd.elf.dir/Macro/PartialMap/macro.c.obj
tm37_guide                                        CMakeFiles/kiibohd.elf.dir/Macro/PartialMap/macro.c.obj
tm38_guide                                        CMakeFiles/kiibohd.elf.dir/Macro/PartialMap/macro.c.obj
tm39_guide                                        CMakeFiles/kiibohd.elf.dir/Macro/PartialMap/macro.c.obj
tm3_guide                                         CMakeFiles/kiibohd.elf.dir/Macro/PartialMap/macro.c.obj
tm40_guide                                        CMakeFiles/kiibohd.elf.dir/Macro/PartialMap/macro.c.obj
tm41_guide                                        CMakeFiles/kiibohd.elf.dir/Macro/PartialMap/macro.c.obj
tm42_guide                                        CMakeFiles/kiibohd.elf.dir/Macro/PartialMap/macro.c.obj
tm43_guide                                        CMakeFiles/kiibohd.elf.dir/Macro/PartialMap/macro.c.obj
tm44_guide                                        CMakeFiles/kiibohd.elf.dir/Macro/PartialMap/macro.c.obj
tm45_guide                                        CMakeFiles/kiibohd.elf.dir/Macro/PartialMap/macro.c.obj
tm46_guide                                        CMakeFiles/kiibohd.elf.dir/Macro/PartialMap/macro.c.obj
tm47_guide                                        CMakeFiles/kiibohd.elf.dir/Macro/PartialMap/macro.c.obj
tm48_guide                                        CMakeFiles/kiibohd.elf.dir/Macro/PartialMap/macro.c.obj
tm49_guide                                        CMakeFiles/kiibohd.elf.dir/Macro/PartialMap/macro.c.obj
tm4_guide                                         CMakeFiles/kiibohd.elf.dir/Macro/PartialMap/macro.c.obj
tm50_guide                                        CMakeFiles/kiibohd.elf.dir/Macro/PartialMap/macro.c.obj
tm51_guide                                        CMakeFiles/kiibohd.elf.dir/Macro/PartialMap/macro.c.obj
tm52_guide                                        CMakeFiles/kiibohd.elf.dir/Macro/PartialMap/macro.c.obj
tm53_guide                                        CMakeFiles/kiibohd.elf.dir/Macro/PartialMap/macro.c.obj
tm54_guide                                        CMakeFiles/kiibohd.elf.dir/Macro/PartialMap/macro.c.obj
tm55_guide                                        CMakeFiles/kiibohd.elf.dir/Macro/PartialMap/macro.c.obj
tm56_guide                                        CMakeFiles/kiibohd.elf.dir/Macro/PartialMap/macro.c.obj
tm57_guide                                        CMakeFiles/kiibohd.elf.dir/Macro/PartialMap/macro.c.obj
tm58_guide                                        CMakeFiles/kiibohd.elf.dir/Macro/PartialMap/macro.c.obj
tm59_guide                                        CMakeFiles/kiibohd.elf.dir/Macro/PartialMap/macro.c.obj
tm5_guide                                         CMakeFiles/kiibohd.elf.dir/Macro/PartialMap/macro.c.obj
tm60_guide                                        CMakeFiles/kiibohd.elf.dir/Macro/PartialMap/macro.c.obj
tm61_guide                                        CMakeFiles/kiibohd.elf.dir/Macro/PartialMap/macro.c.obj
tm62_guide                                        CMakeFiles/kiibohd.elf.dir/Macro/PartialMap/macro.c.obj
tm63_guide                                        CMakeFiles/kiibohd.elf.dir/Macro/PartialMap/macro.c.obj
tm64_guide                                        CMakeFiles/kiibohd.elf.dir/Macro/PartialMap/macro.c.obj
tm65_guide                                        CMakeFiles/kiibohd.elf.dir/Macro/PartialMap/macro.c.obj
tm66_guide                                        CMakeFiles/kiibohd.elf.dir/Macro/PartialMap/macro.c.obj
tm67_guide                                        CMakeFiles/kiibohd.elf.dir/Macro/PartialMap/macro.c.obj
tm68_guide                                        CMakeFiles/kiibohd.elf.dir/Macro/PartialMap/macro.c.obj
tm69_guide                                        CMakeFiles/kiibohd.elf.dir/Macro/PartialMap/macro.c.obj
tm6_guide                                         CMakeFiles/kiibohd.elf.dir/Macro/PartialMap/macro.c.obj
tm70_guide                                        CMakeFiles/kiibohd.elf.dir/Macro/PartialMap/macro.c.obj
tm71_guide                                        CMakeFiles/kiibohd.elf.dir/Macro/PartialMap/macro.c.obj
tm72_guide                                        CMakeFiles/kiibohd.elf.dir/Macro/PartialMap/macro.c.obj
tm73_guide                                        CMakeFiles/kiibohd.elf.dir/Macro/PartialMap/macro.c.obj
tm74_guide                                        CMakeFiles/kiibohd.elf.dir/Macro/PartialMap/macro.c.obj
tm75_guide                                        CMakeFiles/kiibohd.elf.dir/Macro/PartialMap/macro.c.obj
tm76_guide                                        CMakeFiles/kiibohd.elf.dir/Macro/PartialMap/macro.c.obj
tm77_guide                                        CMakeFiles/kiibohd.elf.dir/Macro/PartialMap/macro.c.obj
tm78_guide                                        CMakeFiles/kiibohd.elf.dir/Macro/PartialMap/macro.c.obj
tm79_guide                                        CMakeFiles/kiibohd.elf.dir/Macro/PartialMap/macro.c.obj
tm7_guide                                         CMakeFiles/kiibohd.elf.dir/Macro/PartialMap/macro.c.obj
tm80_guide                                        CMakeFiles/kiibohd.elf.dir/Macro/PartialMap/macro.c.obj
tm81_guide                                        CMakeFiles/kiibohd.elf.dir/Macro/PartialMap/macro.c.obj
tm82_guide                                        CMakeFiles/kiibohd.elf.dir/Macro/PartialMap/macro.c.obj
tm83_guide                                        CMakeFiles/kiibohd.elf.dir/Macro/PartialMap/macro.c.obj
tm84_guide                                        CMakeFiles/kiibohd.elf.dir/Macro/PartialMap/macro.c.obj
tm85_guide                                        CMakeFiles/kiibohd.elf.dir/Macro/PartialMap/macro.c.obj
tm86_guide                                        CMakeFiles/kiibohd.elf.dir/Macro/PartialMap/macro.c.obj
tm87_guide                                        CMakeFiles/kiibohd.elf.dir/Macro/PartialMap/macro.c.obj
tm88_guide                                        CMakeFiles/kiibohd.elf.dir/Macro/PartialMap/macro.c.obj
tm89_guide                                        CMakeFiles/kiibohd.elf.dir/Macro/PartialMap/macro.c.obj
tm8_guide                                         CMakeFiles/kiibohd.elf.dir/Macro/PartialMap/macro.c.obj
tm90_guide                                        CMakeFiles/kiibohd.elf.dir/Macro/PartialMap/macro.c.obj
tm91_guide                                        CMakeFiles/kiibohd.elf.dir/Macro/PartialMap/macro.c.obj
tm92_guide                                        CMakeFiles/kiibohd.elf.dir/Macro/PartialMap/macro.c.obj
tm93_guide                                        CMakeFiles/kiibohd.elf.dir/Macro/PartialMap/macro.c.obj
tm94_guide                                        CMakeFiles/kiibohd.elf.dir/Macro/PartialMap/macro.c.obj
tm9_guide                                         CMakeFiles/kiibohd.elf.dir/Macro/PartialMap/macro.c.obj
tsi0_isr                                          CMakeFiles/kiibohd.elf.dir/Lib/mk20dx.c.obj
uart0_error_isr                                   CMakeFiles/kiibohd.elf.dir/Lib/mk20dx.c.obj
uart0_lon_isr                                     CMakeFiles/kiibohd.elf.dir/Lib/mk20dx.c.obj
uart0_status_isr                                  CMakeFiles/kiibohd.elf.dir/Lib/mk20dx.c.obj
uart1_error_isr                                   CMakeFiles/kiibohd.elf.dir/Lib/mk20dx.c.obj
uart1_status_isr                                  CMakeFiles/kiibohd.elf.dir/Lib/mk20dx.c.obj
uart2_error_isr                                   CMakeFiles/kiibohd.elf.dir/Lib/mk20dx.c.obj
uart2_status_isr                                  CMakeFiles/kiibohd.elf.dir/Lib/mk20dx.c.obj
uart3_error_isr                                   CMakeFiles/kiibohd.elf.dir/Lib/mk20dx.c.obj
uart3_status_isr                                  CMakeFiles/kiibohd.elf.dir/Lib/mk20dx.c.obj
uart4_error_isr                                   CMakeFiles/kiibohd.elf.dir/Lib/mk20dx.c.obj
uart4_status_isr                                  CMakeFiles/kiibohd.elf.dir/Lib/mk20dx.c.obj
uart5_error_isr                                   CMakeFiles/kiibohd.elf.dir/Lib/mk20dx.c.obj
uart5_status_isr                                  CMakeFiles/kiibohd.elf.dir/Lib/mk20dx.c.obj
uartConnectCLIDict                                CMakeFiles/kiibohd.elf.dir/Scan/UARTConnect/connect_scan.c.obj
uartConnectCLIDictName                            CMakeFiles/kiibohd.elf.dir/Scan/UARTConnect/connect_scan.c.obj
uart_rx_buf                                       CMakeFiles/kiibohd.elf.dir/Scan/UARTConnect/connect_scan.c.obj
uart_rx_status                                    CMakeFiles/kiibohd.elf.dir/Scan/UARTConnect/connect_scan.c.obj
uart_tx_buf                                       CMakeFiles/kiibohd.elf.dir/Scan/UARTConnect/connect_scan.c.obj
uart_tx_status                                    CMakeFiles/kiibohd.elf.dir/Scan/UARTConnect/connect_scan.c.obj
uarts_configured                                  CMakeFiles/kiibohd.elf.dir/Scan/UARTConnect/connect_scan.c.obj
unused_isr                                        CMakeFiles/kiibohd.elf.dir/Lib/mk20dx.c.obj
usage_fault_default_isr                           CMakeFiles/kiibohd.elf.dir/Lib/mk20dx.c.obj
usage_fault_isr                                   CMakeFiles/kiibohd.elf.dir/Lib/mk20dx.c.obj
usbInitTimeCLIDict_DescEntry                      CMakeFiles/kiibohd.elf.dir/Output/pjrcUSB/output_com.c.obj
usb_bMaxPower                                     CMakeFiles/kiibohd.elf.dir/Output/pjrcUSB/arm/usb_desc.c.obj
                                                  CMakeFiles/kiibohd.elf.dir/Output/pjrcUSB/arm/usb_dev.c.obj
usb_buffer_memory                                 CMakeFiles/kiibohd.elf.dir/Output/pjrcUSB/arm/usb_mem.c.obj
usb_cdc_line_coding                               CMakeFiles/kiibohd.elf.dir/Output/pjrcUSB/arm/usb_serial.c.obj
                                                  CMakeFiles/kiibohd.elf.dir/Output/pjrcUSB/arm/usb_dev.c.obj
usb_cdc_line_rtsdtr                               CMakeFiles/kiibohd.elf.dir/Output/pjrcUSB/arm/usb_serial.c.obj
                                                  CMakeFiles/kiibohd.elf.dir/Output/pjrcUSB/arm/usb_dev.c.obj
usb_cdc_transmit_flush_timer                      CMakeFiles/kiibohd.elf.dir/Output/pjrcUSB/arm/usb_serial.c.obj
                                                  CMakeFiles/kiibohd.elf.dir/Output/pjrcUSB/arm/usb_dev.c.obj
usb_charge_isr                                    CMakeFiles/kiibohd.elf.dir/Lib/mk20dx.c.obj
usb_configuration                                 CMakeFiles/kiibohd.elf.dir/Output/pjrcUSB/arm/usb_dev.c.obj
                                                  CMakeFiles/kiibohd.elf.dir/Output/pjrcUSB/arm/usb_serial.c.obj
                                                  CMakeFiles/kiibohd.elf.dir/Output/pjrcUSB/arm/usb_mouse.c.obj
                                                  CMakeFiles/kiibohd.elf.dir/Output/pjrcUSB/arm/usb_mem.c.obj
                                                  CMakeFiles/kiibohd.elf.dir/Output/pjrcUSB/arm/usb_keyboard.c.obj
usb_configured                                    CMakeFiles/kiibohd.elf.dir/Output/pjrcUSB/arm/usb_dev.c.obj
usb_descriptor_list                               CMakeFiles/kiibohd.elf.dir/Output/pjrcUSB/arm/usb_desc.c.obj
                                                  CMakeFiles/kiibohd.elf.dir/Output/pjrcUSB/arm/usb_dev.c.obj
usb_device_check                                  CMakeFiles/kiibohd.elf.dir/Output/pjrcUSB/arm/usb_dev.c.obj
                                                  CMakeFiles/kiibohd.elf.dir/Output/pjrcUSB/output_com.c.obj
usb_device_reload                                 CMakeFiles/kiibohd.elf.dir/Output/pjrcUSB/arm/usb_dev.c.obj
                                                  CMakeFiles/kiibohd.elf.dir/Output/pjrcUSB/output_com.c.obj
usb_endpoint_config_table                         CMakeFiles/kiibohd.elf.dir/Output/pjrcUSB/arm/usb_desc.c.obj
                                                  CMakeFiles/kiibohd.elf.dir/Output/pjrcUSB/arm/usb_dev.c.obj
usb_free                                          CMakeFiles/kiibohd.elf.dir/Output/pjrcUSB/arm/usb_mem.c.obj
                                                  CMakeFiles/kiibohd.elf.dir/Output/pjrcUSB/arm/usb_serial.c.obj
                                                  CMakeFiles/kiibohd.elf.dir/Output/pjrcUSB/arm/usb_dev.c.obj
usb_init                                          CMakeFiles/kiibohd.elf.dir/Output/pjrcUSB/arm/usb_dev.c.obj
                                                  CMakeFiles/kiibohd.elf.dir/Output/pjrcUSB/output_com.c.obj
usb_isr                                           CMakeFiles/kiibohd.elf.dir/Output/pjrcUSB/arm/usb_dev.c.obj
                                                  CMakeFiles/kiibohd.elf.dir/Lib/mk20dx.c.obj
usb_keyboard_send                                 CMakeFiles/kiibohd.elf.dir/Output/pjrcUSB/arm/usb_keyboard.c.obj
                                                  CMakeFiles/kiibohd.elf.dir/Output/pjrcUSB/output_com.c.obj
usb_malloc                                        CMakeFiles/kiibohd.elf.dir/Output/pjrcUSB/arm/usb_mem.c.obj
                                                  CMakeFiles/kiibohd.elf.dir/Output/pjrcUSB/arm/usb_serial.c.obj
                                                  CMakeFiles/kiibohd.elf.dir/Output/pjrcUSB/arm/usb_mouse.c.obj
                                                  CMakeFiles/kiibohd.elf.dir/Output/pjrcUSB/arm/usb_keyboard.c.obj
                                                  CMakeFiles/kiibohd.elf.dir/Output/pjrcUSB/arm/usb_dev.c.obj
usb_mouse_buttons_state                           CMakeFiles/kiibohd.elf.dir/Output/pjrcUSB/arm/usb_mouse.c.obj
usb_mouse_move                                    CMakeFiles/kiibohd.elf.dir/Output/pjrcUSB/arm/usb_mouse.c.obj
usb_mouse_position                                CMakeFiles/kiibohd.elf.dir/Output/pjrcUSB/arm/usb_mouse.c.obj
usb_mouse_screen_size                             CMakeFiles/kiibohd.elf.dir/Output/pjrcUSB/arm/usb_mouse.c.obj
usb_mouse_send                                    CMakeFiles/kiibohd.elf.dir/Output/pjrcUSB/arm/usb_mouse.c.obj
                                                  CMakeFiles/kiibohd.elf.dir/Output/pjrcUSB/output_com.c.obj
usb_reboot_timer                                  CMakeFiles/kiibohd.elf.dir/Output/pjrcUSB/arm/usb_dev.c.obj
usb_reinit                                        CMakeFiles/kiibohd.elf.dir/Output/pjrcUSB/arm/usb_dev.c.obj
usb_resume                                        CMakeFiles/kiibohd.elf.dir/Output/pjrcUSB/arm/usb_dev.c.obj
                                                  CMakeFiles/kiibohd.elf.dir/Output/pjrcUSB/arm/usb_keyboard.c.obj
usb_rx                                            CMakeFiles/kiibohd.elf.dir/Output/pjrcUSB/arm/usb_dev.c.obj
                                                  CMakeFiles/kiibohd.elf.dir/Output/pjrcUSB/arm/usb_serial.c.obj
usb_rx_byte_count_data                            CMakeFiles/kiibohd.elf.dir/Output/pjrcUSB/arm/usb_dev.c.obj
                                                  CMakeFiles/kiibohd.elf.dir/Output/pjrcUSB/arm/usb_serial.c.obj
usb_rx_memory                                     CMakeFiles/kiibohd.elf.dir/Output/pjrcUSB/arm/usb_dev.c.obj
                                                  CMakeFiles/kiibohd.elf.dir/Output/pjrcUSB/arm/usb_mem.c.obj
usb_rx_memory_needed                              CMakeFiles/kiibohd.elf.dir/Output/pjrcUSB/arm/usb_dev.c.obj
                                                  CMakeFiles/kiibohd.elf.dir/Output/pjrcUSB/arm/usb_mem.c.obj
usb_serial_available                              CMakeFiles/kiibohd.elf.dir/Output/pjrcUSB/arm/usb_serial.c.obj
                                                  CMakeFiles/kiibohd.elf.dir/Output/pjrcUSB/output_com.c.obj
usb_serial_flush_callback                         CMakeFiles/kiibohd.elf.dir/Output/pjrcUSB/arm/usb_serial.c.obj
                                                  CMakeFiles/kiibohd.elf.dir/Output/pjrcUSB/arm/usb_dev.c.obj
usb_serial_flush_input                            CMakeFiles/kiibohd.elf.dir/Output/pjrcUSB/arm/usb_serial.c.obj
usb_serial_flush_output                           CMakeFiles/kiibohd.elf.dir/Output/pjrcUSB/arm/usb_serial.c.obj
usb_serial_getchar                                CMakeFiles/kiibohd.elf.dir/Output/pjrcUSB/arm/usb_serial.c.obj
                                                  CMakeFiles/kiibohd.elf.dir/Output/pjrcUSB/output_com.c.obj
usb_serial_peekchar                               CMakeFiles/kiibohd.elf.dir/Output/pjrcUSB/arm/usb_serial.c.obj
usb_serial_putchar                                CMakeFiles/kiibohd.elf.dir/Output/pjrcUSB/arm/usb_serial.c.obj
                                                  CMakeFiles/kiibohd.elf.dir/Output/pjrcUSB/output_com.c.obj
usb_serial_read                                   CMakeFiles/kiibohd.elf.dir/Output/pjrcUSB/arm/usb_serial.c.obj
usb_serial_write                                  CMakeFiles/kiibohd.elf.dir/Output/pjrcUSB/arm/usb_serial.c.obj
                                                  CMakeFiles/kiibohd.elf.dir/Output/pjrcUSB/output_com.c.obj
usb_set_config_descriptor_size                    CMakeFiles/kiibohd.elf.dir/Output/pjrcUSB/arm/usb_desc.c.obj
                                                  CMakeFiles/kiibohd.elf.dir/Output/pjrcUSB/arm/usb_dev.c.obj
usb_string_cdc_data_name                          CMakeFiles/kiibohd.elf.dir/Output/pjrcUSB/arm/usb_desc.c.obj
usb_string_cdc_status_name                        CMakeFiles/kiibohd.elf.dir/Output/pjrcUSB/arm/usb_desc.c.obj
usb_string_keyboard_name                          CMakeFiles/kiibohd.elf.dir/Output/pjrcUSB/arm/usb_desc.c.obj
usb_string_manufacturer_name                      CMakeFiles/kiibohd.elf.dir/Output/pjrcUSB/arm/usb_desc.c.obj
usb_string_manufacturer_name_default              CMakeFiles/kiibohd.elf.dir/Output/pjrcUSB/arm/usb_desc.c.obj
usb_string_mouse_name                             CMakeFiles/kiibohd.elf.dir/Output/pjrcUSB/arm/usb_desc.c.obj
usb_string_nkro_keyboard_name                     CMakeFiles/kiibohd.elf.dir/Output/pjrcUSB/arm/usb_desc.c.obj
usb_string_product_name                           CMakeFiles/kiibohd.elf.dir/Output/pjrcUSB/arm/usb_desc.c.obj
usb_string_product_name_default                   CMakeFiles/kiibohd.elf.dir/Output/pjrcUSB/arm/usb_desc.c.obj
usb_string_serial_number                          CMakeFiles/kiibohd.elf.dir/Output/pjrcUSB/arm/usb_desc.c.obj
usb_string_serial_number_default                  CMakeFiles/kiibohd.elf.dir/Output/pjrcUSB/arm/usb_desc.c.obj
                                                  CMakeFiles/kiibohd.elf.dir/Output/pjrcUSB/arm/usb_dev.c.obj
usb_string_sys_ctrl_name                          CMakeFiles/kiibohd.elf.dir/Output/pjrcUSB/arm/usb_desc.c.obj
usb_tx                                            CMakeFiles/kiibohd.elf.dir/Output/pjrcUSB/arm/usb_dev.c.obj
                                                  CMakeFiles/kiibohd.elf.dir/Output/pjrcUSB/arm/usb_serial.c.obj
                                                  CMakeFiles/kiibohd.elf.dir/Output/pjrcUSB/arm/usb_mouse.c.obj
                                                  CMakeFiles/kiibohd.elf.dir/Output/pjrcUSB/arm/usb_keyboard.c.obj
usb_tx_byte_count                                 CMakeFiles/kiibohd.elf.dir/Output/pjrcUSB/arm/usb_dev.c.obj
usb_tx_packet_count                               CMakeFiles/kiibohd.elf.dir/Output/pjrcUSB/arm/usb_dev.c.obj
                                                  CMakeFiles/kiibohd.elf.dir/Output/pjrcUSB/arm/usb_serial.c.obj
                                                  CMakeFiles/kiibohd.elf.dir/Output/pjrcUSB/arm/usb_mouse.c.obj
                                                  CMakeFiles/kiibohd.elf.dir/Output/pjrcUSB/arm/usb_keyboard.c.obj
versionCLIDict_DescEntry                          CMakeFiles/kiibohd.elf.dir/Debug/cli/cli.c.obj
wakeup_isr                                        CMakeFiles/kiibohd.elf.dir/Lib/mk20dx.c.obj
watchdog_isr                                      CMakeFiles/kiibohd.elf.dir/Lib/mk20dx.c.obj
yield                                             CMakeFiles/kiibohd.elf.dir/Lib/delay.c.obj
                                                  CMakeFiles/kiibohd.elf.dir/Output/pjrcUSB/arm/usb_serial.c.obj
                                                  CMakeFiles/kiibohd.elf.dir/Output/pjrcUSB/arm/usb_mouse.c.obj
                                                  CMakeFiles/kiibohd.elf.dir/Output/pjrcUSB/arm/usb_keyboard.c.obj
